
my_code_new.elf:     file format elf32-littleriscv
my_code_new.elf
architecture: riscv:rv32, flags 0x00000112:
EXEC_P, HAS_SYMS, D_PAGED
start address 0x00000000

Program Header:
    LOAD off    0x00001000 vaddr 0x00000000 paddr 0x00000000 align 2**12
         filesz 0x00000004 memsz 0x00000004 flags r-x
    LOAD off    0x00002000 vaddr 0x20000000 paddr 0x00000004 align 2**12
         filesz 0x00000eec memsz 0x00000eec flags r-x
    LOAD off    0x00002ef0 vaddr 0x00000ef0 paddr 0x00000ef0 align 2**12
         filesz 0x00000384 memsz 0x00000384 flags r-x
    LOAD off    0x00003eec vaddr 0x20000eec paddr 0x00001274 align 2**12
         filesz 0x00000014 memsz 0x000000ec flags rw-
    LOAD off    0x00004e00 vaddr 0x20007e00 paddr 0x20007e00 align 2**12
         filesz 0x00000000 memsz 0x00000200 flags rw-

Sections:
Idx Name            Size      VMA       LMA       File off  Algn  Flags
  0 .init           00000004  00000000  00000000  00001000  2**1  CONTENTS, ALLOC, LOAD, READONLY, CODE
  1 .highcodelalign 00000000  00000004  00000004  00003f00  2**0  CONTENTS
  2 .highcode       00000eec  20000000  00000004  00002000  2**1  CONTENTS, ALLOC, LOAD, READONLY, CODE
  3 .text           00000384  00000ef0  00000ef0  00002ef0  2**2  CONTENTS, ALLOC, LOAD, READONLY, CODE
  4 .fini           00000000  00001274  00001274  00003f00  2**0  CONTENTS, ALLOC, LOAD, CODE
  5 .dalign         00000000  20000eec  20000eec  00003f00  2**0  CONTENTS
  6 .dlalign        00000000  00001274  00001274  00003f00  2**0  CONTENTS
  7 .data           00000014  20000eec  00001274  00003eec  2**2  CONTENTS, ALLOC, LOAD, DATA
  8 .bss            000000d8  20000f00  00001288  00003f00  2**2  ALLOC
  9 .stack          00000200  20007e00  20007e00  00004e00  2**0  ALLOC
 10 .debug_info     0000750c  00000000  00000000  00003f00  2**0  CONTENTS, READONLY, DEBUGGING
 11 .debug_abbrev   0000137c  00000000  00000000  0000b40c  2**0  CONTENTS, READONLY, DEBUGGING
 12 .debug_loc      000015fc  00000000  00000000  0000c788  2**0  CONTENTS, READONLY, DEBUGGING
 13 .debug_aranges  000002c8  00000000  00000000  0000dd88  2**3  CONTENTS, READONLY, DEBUGGING
 14 .debug_ranges   000002f0  00000000  00000000  0000e050  2**3  CONTENTS, READONLY, DEBUGGING
 15 .debug_line     00005012  00000000  00000000  0000e340  2**0  CONTENTS, READONLY, DEBUGGING
 16 .debug_str      00001693  00000000  00000000  00013352  2**0  CONTENTS, READONLY, DEBUGGING
 17 .comment        00000066  00000000  00000000  000149e5  2**0  CONTENTS, READONLY
 18 .debug_frame    000005d8  00000000  00000000  00014a4c  2**2  CONTENTS, READONLY, DEBUGGING
 19 .stabstr        00000117  00000000  00000000  00015024  2**0  CONTENTS, READONLY, DEBUGGING
SYMBOL TABLE:
00000000 l    d  .init	00000000 .init
00000004 l    d  .highcodelalign	00000000 .highcodelalign
20000000 l    d  .highcode	00000000 .highcode
00000ef0 l    d  .text	00000000 .text
00001274 l    d  .fini	00000000 .fini
20000eec l    d  .dalign	00000000 .dalign
00001274 l    d  .dlalign	00000000 .dlalign
20000eec l    d  .data	00000000 .data
20000f00 l    d  .bss	00000000 .bss
20007e00 l    d  .stack	00000000 .stack
00000000 l    d  .debug_info	00000000 .debug_info
00000000 l    d  .debug_abbrev	00000000 .debug_abbrev
00000000 l    d  .debug_loc	00000000 .debug_loc
00000000 l    d  .debug_aranges	00000000 .debug_aranges
00000000 l    d  .debug_ranges	00000000 .debug_ranges
00000000 l    d  .debug_line	00000000 .debug_line
00000000 l    d  .debug_str	00000000 .debug_str
00000000 l    d  .comment	00000000 .comment
00000000 l    d  .debug_frame	00000000 .debug_frame
00000000 l    d  .stabstr	00000000 .stabstr
00000000 l    df *ABS*	00000000 ./Startup/startup_CH583.o
20000000 l       .highcode	00000000 _vector_base
00000000 l    df *ABS*	00000000 Main.c
00000000 l    df *ABS*	00000000 app_i2c.c
20000f78 l     O .bss	00000020 i2c_master_buffer
20000f98 l     O .bss	00000020 i2c_slave_rxbuffer
20000fb8 l     O .bss	00000020 i2c_slave_txbuffer
20000f01 l     O .bss	00000001 i2c_error
20000f02 l     O .bss	00000001 i2c_in_repstart
20000f03 l     O .bss	00000001 i2c_master_buffer_index
20000f04 l     O .bss	00000001 i2c_master_buffer_length
20000f05 l     O .bss	00000001 i2c_send_stop
20000f06 l     O .bss	00000001 i2c_slave_addr_rw
20000f07 l     O .bss	00000001 i2c_slave_rxbuffer_index
20000f08 l     O .bss	00000001 i2c_slave_txbuffer_index
20000f09 l     O .bss	00000001 i2c_slave_txbuffer_length
20000f0a l     O .bss	00000001 i2c_state
20000f0b l     O .bss	00000001 is_nack_sent
20000f0c l     O .bss	00000004 slave_cb
00000000 l    df *ABS*	00000000 CH58x_sys.c
00000000 l    df *ABS*	00000000 ISP583.c
20000ad6 l       .highcode	00000000 .loop18
20000ae4 l       .highcode	00000000 .loop29
20000af2 l       .highcode	00000000 .loop40
20000d7e l       .highcode	00000000 .loop402
00000000 l    df *ABS*	00000000 CH58x_gpio.c
00000000 l    df *ABS*	00000000 CH58x_i2c.c
00000000 l    df *ABS*	00000000 CH58x_uart1.c
00000000 l    df *ABS*	00000000 close.c
0000120e g     F .text	00000028 UART1_SendString
20000af2 g     F .highcode	0000000e FLASH_ROM_OUT
20001700 g       .data	00000000 __global_pointer$
00001134 g     F .text	0000000e I2C_ReceiveData
20000a8e g     F .highcode	0000000e mDelayuS
200009d0  w    F .highcode	000000be HardFault_Handler
20000090  w      .highcode	00000000 GPIOB_IRQHandler
00001142 g     F .text	00000016 I2C_GetLastEvent
20000090  w      .highcode	00000000 GPIOA_IRQHandler
20000090  w      .highcode	00000000 SysTick_Handler
00001236 g     F .text	0000002a UART1_RecvString
20000090  w      .highcode	00000000 NMI_Handler
20000092 g     F .highcode	0000009a UART1_IRQHandler
20000f00 g       .bss	00000000 _sbss
00000200 g       *ABS*	00000000 __stack_size
20000ae4 g     F .highcode	0000000e FLASH_ROM_IN
20000090  w      .highcode	00000000 UART0_IRQHandler
0000110c g     F .text	0000001e I2C_ITConfig
00000004 g       .init	00000000 _einit
00000fa2 g     F .text	0000002a print_console
20000090  w      .highcode	00000000 BB_IRQHandler
20000b80 g     F .highcode	0000036a FLASH_EEPROM_CMD
20000090  w      .highcode	00000000 Break_Point_Handler
20000090  w      .highcode	00000000 TMR0_IRQHandler
20000ac4 g     F .highcode	00000012 FLASH_ROM_BEG
20000a9c g     F .highcode	00000028 mDelaymS
20000090  w      .highcode	00000000 Ecall_M_Mode_Handler
20007e00 g       .stack	00000000 _heap_end
20000b00 g     F .highcode	00000048 FLASH_ROM_ADDR
0000112a g     F .text	0000000a I2C_SendData
20000090  w      .highcode	00000000 RTC_IRQHandler
20000fd8 g       .bss	00000000 _ebss
000011dc g     F .text	00000032 UART1_DefInit
20000b48 g     F .highcode	00000038 FLASH_ROM_WAIT
000010a6 g     F .text	00000022 I2C_GenerateSTART
20000090  w      .highcode	00000000 UART2_IRQHandler
20000090  w      .highcode	00000000 PWMX_IRQHandler
00000000 g       .init	00000000 _start
20000090  w      .highcode	00000000 ADC_IRQHandler
20000000 g       .highcode	00000000 _highcode_vma_start
20000090  w      .highcode	00000000 TMR2_IRQHandler
20000f10 g     O .bss	00000004 IRQ_STA
00001158 g     F .text	00000012 I2C_ClearFlag
20000eec g       .data	00000000 _data_vma
200005d8 g     F .highcode	00000386 SetSysClock
20000090  w      .highcode	00000000 USB_IRQHandler
2000012c g     F .highcode	000004ac I2C_IRQHandler
00000fcc g     F .text	00000034 main
20000f00 g     O .bss	00000001 trigB
20000090  w      .highcode	00000000 USB2_IRQHandler
00000004 g       .highcodelalign	00000000 _highcode_lma
20000090  w      .highcode	00000000 LLE_IRQHandler
00000000 g       .init	00000000 _sinit
20000090  w      .highcode	00000000 WDOG_BAT_IRQHandler
20000090  w      .highcode	00000000 Ecall_U_Mode_Handler
20000f14 g     O .bss	00000064 RxBuff
20000090  w      .highcode	00000000 TMR3_IRQHandler
20008000 g       .stack	00000000 _eusrstack
20000090  w      .highcode	00000000 SW_Handler
00001000 g     F .text	000000a6 GPIOA_ModeCfg
0000116a g     F .text	00000042 GetSysClock
20000f00 g       .data	00000000 _edata
20000090  w      .highcode	00000000 SPI0_IRQHandler
20000fd8 g       .bss	00000000 _end
20000eec g       .highcode	00000000 _highcode_vma_end
00001274 g       .dlalign	00000000 _data_lma
20000eec g     O .data	00000014 TxBuff
00000ef0  w      .text	00000000 handle_reset
000010ea g     F .text	00000022 I2C_AcknowledgeConfig
20000090  w      .highcode	00000000 UART3_IRQHandler
000010c8 g     F .text	00000022 I2C_GenerateSTOP
20000ad6 g     F .highcode	0000000e FLASH_ROM_END
20000090  w      .highcode	00000000 TMR1_IRQHandler
2000095e g     F .highcode	00000072 SYS_ResetExecute
000011ac g     F .text	00000030 UART1_BaudRateCfg



Disassembly of section .init:

00000000 <_sinit>:
_start():
/home/flinux/Downloads/ch583-main/EVT/EXAM/my_code_new/obj/../Startup/startup_CH583.S:17

	.section	.init,"ax",@progbits
	.global	_start
	.align	1
_start:
	j	handle_reset
   0:	6f10006f          	j	ef0 <handle_reset>

Disassembly of section .highcode:

20000000 <_highcode_vma_start>:
	...
_vector_base():
20000008:	0090                	addi	a2,sp,64
2000000a:	2000                	fld	fs0,0(s0)
2000000c:	09d0                	addi	a2,sp,212
2000000e:	2000                	fld	fs0,0(s0)
20000010:	bda9                	j	1ffffe6a <_data_lma+0x1fffebf6>
20000012:	f5f9                	bnez	a1,1fffffe0 <_data_lma+0x1fffed6c>
20000014:	0090                	addi	a2,sp,64
20000016:	2000                	fld	fs0,0(s0)
	...
20000020:	0090                	addi	a2,sp,64
20000022:	2000                	fld	fs0,0(s0)
20000024:	0090                	addi	a2,sp,64
20000026:	2000                	fld	fs0,0(s0)
	...
20000030:	0090                	addi	a2,sp,64
20000032:	2000                	fld	fs0,0(s0)
20000034:	0000                	unimp
20000036:	0000                	unimp
20000038:	0090                	addi	a2,sp,64
2000003a:	2000                	fld	fs0,0(s0)
2000003c:	0000                	unimp
2000003e:	0000                	unimp
20000040:	0090                	addi	a2,sp,64
20000042:	2000                	fld	fs0,0(s0)
20000044:	0090                	addi	a2,sp,64
20000046:	2000                	fld	fs0,0(s0)
20000048:	0090                	addi	a2,sp,64
2000004a:	2000                	fld	fs0,0(s0)
2000004c:	0090                	addi	a2,sp,64
2000004e:	2000                	fld	fs0,0(s0)
20000050:	0090                	addi	a2,sp,64
20000052:	2000                	fld	fs0,0(s0)
20000054:	0090                	addi	a2,sp,64
20000056:	2000                	fld	fs0,0(s0)
20000058:	0090                	addi	a2,sp,64
2000005a:	2000                	fld	fs0,0(s0)
2000005c:	0090                	addi	a2,sp,64
2000005e:	2000                	fld	fs0,0(s0)
20000060:	0090                	addi	a2,sp,64
20000062:	2000                	fld	fs0,0(s0)
20000064:	0090                	addi	a2,sp,64
20000066:	2000                	fld	fs0,0(s0)
20000068:	0090                	addi	a2,sp,64
2000006a:	2000                	fld	fs0,0(s0)
2000006c:	0092                	slli	ra,ra,0x4
2000006e:	2000                	fld	fs0,0(s0)
20000070:	0090                	addi	a2,sp,64
20000072:	2000                	fld	fs0,0(s0)
20000074:	0090                	addi	a2,sp,64
20000076:	2000                	fld	fs0,0(s0)
20000078:	012c                	addi	a1,sp,136
2000007a:	2000                	fld	fs0,0(s0)
2000007c:	0090                	addi	a2,sp,64
2000007e:	2000                	fld	fs0,0(s0)
20000080:	0090                	addi	a2,sp,64
20000082:	2000                	fld	fs0,0(s0)
20000084:	0090                	addi	a2,sp,64
20000086:	2000                	fld	fs0,0(s0)
20000088:	0090                	addi	a2,sp,64
2000008a:	2000                	fld	fs0,0(s0)
2000008c:	0090                	addi	a2,sp,64
2000008e:	2000                	fld	fs0,0(s0)

20000090 <ADC_IRQHandler>:
GPIOB_IRQHandler():
/home/flinux/Downloads/ch583-main/EVT/EXAM/my_code_new/obj/../Startup/startup_CH583.S:121
TMR3_IRQHandler:
UART2_IRQHandler:
UART3_IRQHandler:
WDOG_BAT_IRQHandler: 
1:  
	j 1b
20000090:	a001                	j	20000090 <ADC_IRQHandler>

20000092 <UART1_IRQHandler>:
UART1_IRQHandler():
/home/flinux/Downloads/ch583-main/EVT/EXAM/my_code_new/obj/../src/Main.c:90
	//PRINT("\n5.TouchKey sampling...\n");
	GPIOA_ModeCfg(GPIO_Pin_12, GPIO_ModeIN_Floating);
	TouchKey_ChSampInit();
	ADC_ChannelCfg(2);

	for(i = 0; i < 20; i++)
20000092:	40003737          	lui	a4,0x40003
20000096:	40474783          	lbu	a5,1028(a4) # 40003404 <_eusrstack+0x1fffb404>
2000009a:	4699                	li	a3,6
2000009c:	8bbd                	andi	a5,a5,15
2000009e:	02d78a63          	beq	a5,a3,200000d2 <UART1_IRQHandler+0x40>
200000a2:	4731                	li	a4,12
/home/flinux/Downloads/ch583-main/EVT/EXAM/my_code_new/obj/../src/Main.c:88
	ADC_ChannelCfg(2);
200000a4:	1141                	addi	sp,sp,-16
200000a6:	06e78063          	beq	a5,a4,20000106 <UART1_IRQHandler+0x74>
200000aa:	4711                	li	a4,4
200000ac:	02e79063          	bne	a5,a4,200000cc <UART1_IRQHandler+0x3a>
/home/flinux/Downloads/ch583-main/EVT/EXAM/my_code_new/obj/../src/Main.c:98
	}
	for(i = 0; i < 20; i++)
	{
		//PRINT("%d \n", adcBuff[i]);
		char temp_char[2];
		sprintf(temp_char, "%u", adcBuff);
200000b0:	000107a3          	sb	zero,15(sp)
/home/flinux/Downloads/ch583-main/EVT/EXAM/my_code_new/obj/../src/Main.c:100
		UART1_SendString("\r\n", strlen("\r\n"));
		UART1_SendString("Touch Sampling Value is :: ", strlen("Touch Sampling Value is :: "));
200000b4:	40003737          	lui	a4,0x40003
200000b8:	81418693          	addi	a3,gp,-2028 # 20000f14 <RxBuff>
/home/flinux/Downloads/ch583-main/EVT/EXAM/my_code_new/obj/../src/Main.c:98 (discriminator 1)
		sprintf(temp_char, "%u", adcBuff);
200000bc:	00f14783          	lbu	a5,15(sp)
200000c0:	00001617          	auipc	a2,0x1
200000c4:	e4064603          	lbu	a2,-448(a2) # 20000f00 <_edata>
200000c8:	00f61963          	bne	a2,a5,200000da <UART1_IRQHandler+0x48>
/home/flinux/Downloads/ch583-main/EVT/EXAM/my_code_new/obj/../src/Main.c:115
	uint32_t temp_temperature  = AHT21_Read_Temperature();
	sprintf(temp_char, "%u", temp_temperature);

	UART1_SendString("\r\n", strlen("\r\n"));
	UART1_SendString("Temperature Value is :: ", strlen("Temperature Value is :: "));
	UART1_SendString(temp_char, strlen(temp_char));
200000cc:	0141                	addi	sp,sp,16
200000ce:	30200073          	mret
/home/flinux/Downloads/ch583-main/EVT/EXAM/my_code_new/obj/../src/Main.c:94
	for(i = 0; i < 20; i++)
200000d2:	40574783          	lbu	a5,1029(a4) # 40003405 <_eusrstack+0x1fffb405>
/home/flinux/Downloads/ch583-main/EVT/EXAM/my_code_new/obj/../src/Main.c:95
	{
200000d6:	30200073          	mret
/home/flinux/Downloads/ch583-main/EVT/EXAM/my_code_new/obj/../src/Main.c:100 (discriminator 3)
		UART1_SendString("Touch Sampling Value is :: ", strlen("Touch Sampling Value is :: "));
200000da:	00f14783          	lbu	a5,15(sp)
200000de:	40874603          	lbu	a2,1032(a4)
200000e2:	97b6                	add	a5,a5,a3
200000e4:	00c78023          	sb	a2,0(a5)
/home/flinux/Downloads/ch583-main/EVT/EXAM/my_code_new/obj/../src/Main.c:101 (discriminator 3)
		UART1_SendString(temp_char, strlen(temp_char));
200000e8:	00f14783          	lbu	a5,15(sp)
200000ec:	97b6                	add	a5,a5,a3
200000ee:	0007c783          	lbu	a5,0(a5)
200000f2:	40f70423          	sb	a5,1032(a4)
/home/flinux/Downloads/ch583-main/EVT/EXAM/my_code_new/obj/../src/Main.c:98 (discriminator 3)
		sprintf(temp_char, "%u", adcBuff);
200000f6:	00f14783          	lbu	a5,15(sp)
200000fa:	0785                	addi	a5,a5,1
200000fc:	0ff7f793          	andi	a5,a5,255
20000100:	00f107a3          	sb	a5,15(sp)
20000104:	bf65                	j	200000bc <UART1_IRQHandler+0x2a>
/home/flinux/Downloads/ch583-main/EVT/EXAM/my_code_new/obj/../src/Main.c:105

20000106:	81418513          	addi	a0,gp,-2028 # 20000f14 <RxBuff>
2000010a:	e0001097          	auipc	ra,0xe0001
2000010e:	12c080e7          	jalr	300(ra) # 1236 <UART1_RecvString>
20000112:	0ff57513          	andi	a0,a0,255
20000116:	00a107a3          	sb	a0,15(sp)
/home/flinux/Downloads/ch583-main/EVT/EXAM/my_code_new/obj/../src/Main.c:106
void test_aht()
2000011a:	00f14583          	lbu	a1,15(sp)
2000011e:	81418513          	addi	a0,gp,-2028 # 20000f14 <RxBuff>
20000122:	e0001097          	auipc	ra,0xe0001
20000126:	0ec080e7          	jalr	236(ra) # 120e <UART1_SendString>
/home/flinux/Downloads/ch583-main/EVT/EXAM/my_code_new/obj/../src/Main.c:115
	UART1_SendString(temp_char, strlen(temp_char));
2000012a:	b74d                	j	200000cc <UART1_IRQHandler+0x3a>

2000012c <I2C_IRQHandler>:
I2C_IRQHandler():
/home/flinux/Downloads/ch583-main/EVT/EXAM/my_code_new/obj/../src/app_i2c.c:294
                        I2C_DBG("  restart\n");
                    }
                }
            }

            /* Address or data sent, nack received */
2000012c:	1141                	addi	sp,sp,-16
2000012e:	c622                	sw	s0,12(sp)
20000130:	c426                	sw	s1,8(sp)
20000132:	c24a                	sw	s2,4(sp)
/home/flinux/Downloads/ch583-main/EVT/EXAM/my_code_new/obj/../src/app_i2c.c:295
            if (event & RB_I2C_AF) {
20000134:	e0001097          	auipc	ra,0xe0001
20000138:	00e080e7          	jalr	14(ra) # 1142 <I2C_GetLastEvent>
/home/flinux/Downloads/ch583-main/EVT/EXAM/my_code_new/obj/../src/app_i2c.c:299
                I2C_ClearFlag(I2C_FLAG_AF);

                i2c_error = I2C_MT_NACK;
                i2c_state = I2C_READY;
2000013c:	00f51793          	slli	a5,a0,0xf
/home/flinux/Downloads/ch583-main/EVT/EXAM/my_code_new/obj/../src/app_i2c.c:295
            if (event & RB_I2C_AF) {
20000140:	842a                	mv	s0,a0
/home/flinux/Downloads/ch583-main/EVT/EXAM/my_code_new/obj/../src/app_i2c.c:299
                i2c_state = I2C_READY;
20000142:	40057493          	andi	s1,a0,1024
20000146:	2a07da63          	bgez	a5,200003fa <I2C_IRQHandler+0x2ce>
/home/flinux/Downloads/ch583-main/EVT/EXAM/my_code_new/obj/../src/app_i2c.c:300
                I2C_GenerateSTOP(ENABLE);
2000014a:	00157793          	andi	a5,a0,1
2000014e:	cb89                	beqz	a5,20000160 <I2C_IRQHandler+0x34>
/home/flinux/Downloads/ch583-main/EVT/EXAM/my_code_new/obj/../src/app_i2c.c:302
                I2C_DBG("  NACK received, sent stop\n");
            }
20000150:	00001517          	auipc	a0,0x1
20000154:	db654503          	lbu	a0,-586(a0) # 20000f06 <i2c_slave_addr_rw>
20000158:	e0001097          	auipc	ra,0xe0001
2000015c:	fd2080e7          	jalr	-46(ra) # 112a <I2C_SendData>
/home/flinux/Downloads/ch583-main/EVT/EXAM/my_code_new/obj/../src/app_i2c.c:307
        } else {
        /* I2C Master reveiver */
            I2C_DBG("Master receiver:\n");

            /* address sent, ack received */
20000160:	00d41793          	slli	a5,s0,0xd
20000164:	1207d063          	bgez	a5,20000284 <I2C_IRQHandler+0x158>
/home/flinux/Downloads/ch583-main/EVT/EXAM/my_code_new/obj/../src/app_i2c.c:310
            if(event & RB_I2C_ADDR) { 
                /* ack if more bytes are expected, otherwise nack */
                if (i2c_master_buffer_length) {
20000168:	000407b7          	lui	a5,0x40
2000016c:	08678793          	addi	a5,a5,134 # 40086 <_data_lma+0x3ee12>
20000170:	8fe1                	and	a5,a5,s0
20000172:	c3b1                	beqz	a5,200001b6 <I2C_IRQHandler+0x8a>
/home/flinux/Downloads/ch583-main/EVT/EXAM/my_code_new/obj/../src/app_i2c.c:312
                    I2C_AcknowledgeConfig(ENABLE);
                    I2C_DBG("  address sent\n");
20000174:	00001797          	auipc	a5,0x1
20000178:	d8f7c783          	lbu	a5,-625(a5) # 20000f03 <i2c_master_buffer_index>
2000017c:	00001717          	auipc	a4,0x1
20000180:	d8874703          	lbu	a4,-632(a4) # 20000f04 <i2c_master_buffer_length>
20000184:	0ae7f163          	bgeu	a5,a4,20000226 <I2C_IRQHandler+0xfa>
/home/flinux/Downloads/ch583-main/EVT/EXAM/my_code_new/obj/../src/app_i2c.c:313
                    I2C_DBG("  ACK next\n");
20000188:	00001797          	auipc	a5,0x1
2000018c:	d7b78793          	addi	a5,a5,-645 # 20000f03 <i2c_master_buffer_index>
20000190:	0007c783          	lbu	a5,0(a5)
20000194:	0ff7f793          	andi	a5,a5,255
20000198:	00178713          	addi	a4,a5,1
2000019c:	00001697          	auipc	a3,0x1
200001a0:	d6e683a3          	sb	a4,-665(a3) # 20000f03 <i2c_master_buffer_index>
200001a4:	87818713          	addi	a4,gp,-1928 # 20000f78 <i2c_master_buffer>
200001a8:	97ba                	add	a5,a5,a4
200001aa:	0007c503          	lbu	a0,0(a5)
200001ae:	e0001097          	auipc	ra,0xe0001
200001b2:	f7c080e7          	jalr	-132(ra) # 112a <I2C_SendData>
/home/flinux/Downloads/ch583-main/EVT/EXAM/my_code_new/obj/../src/app_i2c.c:335
                    I2C_DBG("  ACK next\n");
                } else {
                    //XXX: Should not delay too match before NACK 
                    I2C_AcknowledgeConfig(DISABLE);
                    I2C_DBG("  NACK next\n");

200001b6:	c48d                	beqz	s1,200001e0 <I2C_IRQHandler+0xb4>
/home/flinux/Downloads/ch583-main/EVT/EXAM/my_code_new/obj/../src/app_i2c.c:336
                    if (is_nack_sent) {
200001b8:	10000537          	lui	a0,0x10000
200001bc:	40050513          	addi	a0,a0,1024 # 10000400 <_data_lma+0xffff18c>
200001c0:	e0001097          	auipc	ra,0xe0001
200001c4:	f98080e7          	jalr	-104(ra) # 1158 <I2C_ClearFlag>
/home/flinux/Downloads/ch583-main/EVT/EXAM/my_code_new/obj/../src/app_i2c.c:338
                        is_nack_sent = false;
                        if (i2c_send_stop) {
200001c8:	478d                	li	a5,3
200001ca:	00001717          	auipc	a4,0x1
200001ce:	d2f70ba3          	sb	a5,-713(a4) # 20000f01 <i2c_error>
/home/flinux/Downloads/ch583-main/EVT/EXAM/my_code_new/obj/../src/app_i2c.c:411
            }
        }

        if (event & (RB_I2C_TRA << 16)) { //TODO: STOP?
            /* Slave transmintter */
            I2C_AcknowledgeConfig(ENABLE);
200001d2:	4505                	li	a0,1
/home/flinux/Downloads/ch583-main/EVT/EXAM/my_code_new/obj/../src/app_i2c.c:410
            /* Slave transmintter */
200001d4:	80018523          	sb	zero,-2038(gp) # 20000f0a <i2c_state>
/home/flinux/Downloads/ch583-main/EVT/EXAM/my_code_new/obj/../src/app_i2c.c:411
            I2C_AcknowledgeConfig(ENABLE);
200001d8:	e0001097          	auipc	ra,0xe0001
200001dc:	ef0080e7          	jalr	-272(ra) # 10c8 <I2C_GenerateSTOP>
/home/flinux/Downloads/ch583-main/EVT/EXAM/my_code_new/obj/../src/app_i2c.c:519

    if (event & RB_I2C_SMBALERT) {
        I2C_ClearFlag(RB_I2C_SMBALERT);
        
        i2c_error = I2C_SMBALERT;
        I2C_DBG("RB_I2C_SMBALERT\n");
200001e0:	10047793          	andi	a5,s0,256
200001e4:	c38d                	beqz	a5,20000206 <I2C_IRQHandler+0xda>
/home/flinux/Downloads/ch583-main/EVT/EXAM/my_code_new/obj/../src/app_i2c.c:520
    }
200001e6:	10000513          	li	a0,256
200001ea:	e0001097          	auipc	ra,0xe0001
200001ee:	f6e080e7          	jalr	-146(ra) # 1158 <I2C_ClearFlag>
/home/flinux/Downloads/ch583-main/EVT/EXAM/my_code_new/obj/../src/app_i2c.c:521

200001f2:	4505                	li	a0,1
200001f4:	e0001097          	auipc	ra,0xe0001
200001f8:	ed4080e7          	jalr	-300(ra) # 10c8 <I2C_GenerateSTOP>
/home/flinux/Downloads/ch583-main/EVT/EXAM/my_code_new/obj/../src/app_i2c.c:523
    I2C_DBG("\n");
}
200001fc:	4795                	li	a5,5
200001fe:	00001717          	auipc	a4,0x1
20000202:	d0f701a3          	sb	a5,-765(a4) # 20000f01 <i2c_error>
/home/flinux/Downloads/ch583-main/EVT/EXAM/my_code_new/obj/../src/app_i2c.c:527
20000206:	20047793          	andi	a5,s0,512
2000020a:	24078d63          	beqz	a5,20000464 <I2C_IRQHandler+0x338>
/home/flinux/Downloads/ch583-main/EVT/EXAM/my_code_new/obj/../src/app_i2c.c:528
2000020e:	20000513          	li	a0,512
20000212:	e0001097          	auipc	ra,0xe0001
20000216:	f46080e7          	jalr	-186(ra) # 1158 <I2C_ClearFlag>
/home/flinux/Downloads/ch583-main/EVT/EXAM/my_code_new/obj/../src/app_i2c.c:530
2000021a:	4791                	li	a5,4
2000021c:	00001717          	auipc	a4,0x1
20000220:	cef702a3          	sb	a5,-795(a4) # 20000f01 <i2c_error>
20000224:	a481                	j	20000464 <I2C_IRQHandler+0x338>
/home/flinux/Downloads/ch583-main/EVT/EXAM/my_code_new/obj/../src/app_i2c.c:317
                    is_nack_sent = true;
20000226:	00001797          	auipc	a5,0x1
2000022a:	cdf7c783          	lbu	a5,-801(a5) # 20000f05 <i2c_send_stop>
2000022e:	cb89                	beqz	a5,20000240 <I2C_IRQHandler+0x114>
/home/flinux/Downloads/ch583-main/EVT/EXAM/my_code_new/obj/../src/app_i2c.c:319
                    I2C_DBG("  NACK next\n");
20000230:	4505                	li	a0,1
/home/flinux/Downloads/ch583-main/EVT/EXAM/my_code_new/obj/../src/app_i2c.c:318
                    I2C_DBG("  address sent\n");
20000232:	80018523          	sb	zero,-2038(gp) # 20000f0a <i2c_state>
/home/flinux/Downloads/ch583-main/EVT/EXAM/my_code_new/obj/../src/app_i2c.c:319
                    I2C_DBG("  NACK next\n");
20000236:	e0001097          	auipc	ra,0xe0001
2000023a:	e92080e7          	jalr	-366(ra) # 10c8 <I2C_GenerateSTOP>
/home/flinux/Downloads/ch583-main/EVT/EXAM/my_code_new/obj/../src/app_i2c.c:320
                }
2000023e:	bfa5                	j	200001b6 <I2C_IRQHandler+0x8a>
/home/flinux/Downloads/ch583-main/EVT/EXAM/my_code_new/obj/../src/app_i2c.c:322

20000240:	4785                	li	a5,1
/home/flinux/Downloads/ch583-main/EVT/EXAM/my_code_new/obj/../src/app_i2c.c:324
            if (event & (RB_I2C_RxNE)) {
20000242:	4581                	li	a1,0
20000244:	40000513          	li	a0,1024
/home/flinux/Downloads/ch583-main/EVT/EXAM/my_code_new/obj/../src/app_i2c.c:322

20000248:	00001717          	auipc	a4,0x1
2000024c:	caf70d23          	sb	a5,-838(a4) # 20000f02 <i2c_in_repstart>
/home/flinux/Downloads/ch583-main/EVT/EXAM/my_code_new/obj/../src/app_i2c.c:324
            if (event & (RB_I2C_RxNE)) {
20000250:	e0001097          	auipc	ra,0xe0001
20000254:	ebc080e7          	jalr	-324(ra) # 110c <I2C_ITConfig>
/home/flinux/Downloads/ch583-main/EVT/EXAM/my_code_new/obj/../src/app_i2c.c:325
                /* put byte into buffer */ 
20000258:	4581                	li	a1,0
2000025a:	20000513          	li	a0,512
2000025e:	e0001097          	auipc	ra,0xe0001
20000262:	eae080e7          	jalr	-338(ra) # 110c <I2C_ITConfig>
/home/flinux/Downloads/ch583-main/EVT/EXAM/my_code_new/obj/../src/app_i2c.c:326
                i2c_master_buffer[i2c_master_buffer_index++] = I2C_ReceiveData();
20000266:	4581                	li	a1,0
20000268:	10000513          	li	a0,256
2000026c:	e0001097          	auipc	ra,0xe0001
20000270:	ea0080e7          	jalr	-352(ra) # 110c <I2C_ITConfig>
/home/flinux/Downloads/ch583-main/EVT/EXAM/my_code_new/obj/../src/app_i2c.c:327

20000274:	4505                	li	a0,1
20000276:	e0001097          	auipc	ra,0xe0001
2000027a:	e30080e7          	jalr	-464(ra) # 10a6 <I2C_GenerateSTART>
/home/flinux/Downloads/ch583-main/EVT/EXAM/my_code_new/obj/../src/app_i2c.c:328
                if (i2c_master_buffer_index < i2c_master_buffer_length) {
2000027e:	80018523          	sb	zero,-2038(gp) # 20000f0a <i2c_state>
20000282:	bf15                	j	200001b6 <I2C_IRQHandler+0x8a>
/home/flinux/Downloads/ch583-main/EVT/EXAM/my_code_new/obj/../src/app_i2c.c:348
                            I2C_GenerateSTART(ENABLE);
20000284:	00247793          	andi	a5,s0,2
20000288:	cb99                	beqz	a5,2000029e <I2C_IRQHandler+0x172>
/home/flinux/Downloads/ch583-main/EVT/EXAM/my_code_new/obj/../src/app_i2c.c:350
                            I2C_DBG("  restart\n");
2000028a:	00001797          	auipc	a5,0x1
2000028e:	c7a7c783          	lbu	a5,-902(a5) # 20000f04 <i2c_master_buffer_length>
20000292:	c3e5                	beqz	a5,20000372 <I2C_IRQHandler+0x246>
/home/flinux/Downloads/ch583-main/EVT/EXAM/my_code_new/obj/../src/app_i2c.c:351

20000294:	4505                	li	a0,1
20000296:	e0001097          	auipc	ra,0xe0001
2000029a:	e54080e7          	jalr	-428(ra) # 10ea <I2C_AcknowledgeConfig>
/home/flinux/Downloads/ch583-main/EVT/EXAM/my_code_new/obj/../src/app_i2c.c:364
            if (event & RB_I2C_AF) {
2000029e:	04047793          	andi	a5,s0,64
200002a2:	c3b9                	beqz	a5,200002e8 <I2C_IRQHandler+0x1bc>
/home/flinux/Downloads/ch583-main/EVT/EXAM/my_code_new/obj/../src/app_i2c.c:366
                /* put final byte into buffer */
200002a4:	00001917          	auipc	s2,0x1
200002a8:	c5f94903          	lbu	s2,-929(s2) # 20000f03 <i2c_master_buffer_index>
200002ac:	00190793          	addi	a5,s2,1
200002b0:	00001717          	auipc	a4,0x1
200002b4:	c4f709a3          	sb	a5,-941(a4) # 20000f03 <i2c_master_buffer_index>
200002b8:	e0001097          	auipc	ra,0xe0001
200002bc:	e7c080e7          	jalr	-388(ra) # 1134 <I2C_ReceiveData>
200002c0:	87818793          	addi	a5,gp,-1928 # 20000f78 <i2c_master_buffer>
200002c4:	97ca                	add	a5,a5,s2
200002c6:	00a78023          	sb	a0,0(a5)
/home/flinux/Downloads/ch583-main/EVT/EXAM/my_code_new/obj/../src/app_i2c.c:368

200002ca:	00001717          	auipc	a4,0x1
200002ce:	c3a74703          	lbu	a4,-966(a4) # 20000f04 <i2c_master_buffer_length>
200002d2:	00001797          	auipc	a5,0x1
200002d6:	c317c783          	lbu	a5,-975(a5) # 20000f03 <i2c_master_buffer_index>
200002da:	0ae7f563          	bgeu	a5,a4,20000384 <I2C_IRQHandler+0x258>
/home/flinux/Downloads/ch583-main/EVT/EXAM/my_code_new/obj/../src/app_i2c.c:369
                if (i2c_send_stop) {
200002de:	4505                	li	a0,1
200002e0:	e0001097          	auipc	ra,0xe0001
200002e4:	e0a080e7          	jalr	-502(ra) # 10ea <I2C_AcknowledgeConfig>
/home/flinux/Downloads/ch583-main/EVT/EXAM/my_code_new/obj/../src/app_i2c.c:404
                i2c_state = I2C_SRX;
200002e8:	ee048ce3          	beqz	s1,200001e0 <I2C_IRQHandler+0xb4>
/home/flinux/Downloads/ch583-main/EVT/EXAM/my_code_new/obj/../src/app_i2c.c:405
                i2c_slave_rxbuffer_index = 0;
200002ec:	10000537          	lui	a0,0x10000
200002f0:	40050513          	addi	a0,a0,1024 # 10000400 <_data_lma+0xffff18c>
200002f4:	e0001097          	auipc	ra,0xe0001
200002f8:	e64080e7          	jalr	-412(ra) # 1158 <I2C_ClearFlag>
/home/flinux/Downloads/ch583-main/EVT/EXAM/my_code_new/obj/../src/app_i2c.c:407
        }
200002fc:	00001497          	auipc	s1,0x1
20000300:	c074c483          	lbu	s1,-1017(s1) # 20000f03 <i2c_master_buffer_index>
20000304:	00148793          	addi	a5,s1,1
20000308:	00001717          	auipc	a4,0x1
2000030c:	bef70da3          	sb	a5,-1029(a4) # 20000f03 <i2c_master_buffer_index>
20000310:	e0001097          	auipc	ra,0xe0001
20000314:	e24080e7          	jalr	-476(ra) # 1134 <I2C_ReceiveData>
20000318:	87818793          	addi	a5,gp,-1928 # 20000f78 <i2c_master_buffer>
2000031c:	97a6                	add	a5,a5,s1
2000031e:	00a78023          	sb	a0,0(a5)
/home/flinux/Downloads/ch583-main/EVT/EXAM/my_code_new/obj/../src/app_i2c.c:409
        if (event & (RB_I2C_TRA << 16)) { //TODO: STOP?
20000322:	00001797          	auipc	a5,0x1
20000326:	be37c783          	lbu	a5,-1053(a5) # 20000f05 <i2c_send_stop>
2000032a:	ea0794e3          	bnez	a5,200001d2 <I2C_IRQHandler+0xa6>
/home/flinux/Downloads/ch583-main/EVT/EXAM/my_code_new/obj/../src/app_i2c.c:414
            if (event & RB_I2C_AF) {
2000032e:	4785                	li	a5,1
/home/flinux/Downloads/ch583-main/EVT/EXAM/my_code_new/obj/../src/app_i2c.c:416
                I2C_ClearFlag(I2C_FLAG_AF);
20000330:	4581                	li	a1,0
20000332:	40000513          	li	a0,1024
/home/flinux/Downloads/ch583-main/EVT/EXAM/my_code_new/obj/../src/app_i2c.c:414
            if (event & RB_I2C_AF) {
20000336:	00001717          	auipc	a4,0x1
2000033a:	bcf70623          	sb	a5,-1076(a4) # 20000f02 <i2c_in_repstart>
/home/flinux/Downloads/ch583-main/EVT/EXAM/my_code_new/obj/../src/app_i2c.c:416
                I2C_ClearFlag(I2C_FLAG_AF);
2000033e:	e0001097          	auipc	ra,0xe0001
20000342:	dce080e7          	jalr	-562(ra) # 110c <I2C_ITConfig>
/home/flinux/Downloads/ch583-main/EVT/EXAM/my_code_new/obj/../src/app_i2c.c:417
                I2C_AcknowledgeConfig(ENABLE);
20000346:	4581                	li	a1,0
20000348:	20000513          	li	a0,512
2000034c:	e0001097          	auipc	ra,0xe0001
20000350:	dc0080e7          	jalr	-576(ra) # 110c <I2C_ITConfig>
/home/flinux/Downloads/ch583-main/EVT/EXAM/my_code_new/obj/../src/app_i2c.c:418
                I2C_DBG("  Nack received\n");
20000354:	4581                	li	a1,0
20000356:	10000513          	li	a0,256
2000035a:	e0001097          	auipc	ra,0xe0001
2000035e:	db2080e7          	jalr	-590(ra) # 110c <I2C_ITConfig>
/home/flinux/Downloads/ch583-main/EVT/EXAM/my_code_new/obj/../src/app_i2c.c:419

20000362:	4505                	li	a0,1
20000364:	e0001097          	auipc	ra,0xe0001
20000368:	d42080e7          	jalr	-702(ra) # 10a6 <I2C_GenerateSTART>
/home/flinux/Downloads/ch583-main/EVT/EXAM/my_code_new/obj/../src/app_i2c.c:420
                /* leave slave receiver state */
2000036c:	80018523          	sb	zero,-2038(gp) # 20000f0a <i2c_state>
20000370:	bd85                	j	200001e0 <I2C_IRQHandler+0xb4>
/home/flinux/Downloads/ch583-main/EVT/EXAM/my_code_new/obj/../src/app_i2c.c:356
                }
20000372:	4501                	li	a0,0
20000374:	e0001097          	auipc	ra,0xe0001
20000378:	d76080e7          	jalr	-650(ra) # 10ea <I2C_AcknowledgeConfig>
/home/flinux/Downloads/ch583-main/EVT/EXAM/my_code_new/obj/../src/app_i2c.c:357

2000037c:	4785                	li	a5,1
2000037e:	80f185a3          	sb	a5,-2037(gp) # 20000f0b <is_nack_sent>
20000382:	bf31                	j	2000029e <I2C_IRQHandler+0x172>
/home/flinux/Downloads/ch583-main/EVT/EXAM/my_code_new/obj/../src/app_i2c.c:373
                } else {
20000384:	4501                	li	a0,0
20000386:	e0001097          	auipc	ra,0xe0001
2000038a:	d64080e7          	jalr	-668(ra) # 10ea <I2C_AcknowledgeConfig>
/home/flinux/Downloads/ch583-main/EVT/EXAM/my_code_new/obj/../src/app_i2c.c:376
                    I2C_ITConfig(I2C_IT_BUF, DISABLE);
2000038e:	80b1c783          	lbu	a5,-2037(gp) # 20000f0b <is_nack_sent>
20000392:	c3a5                	beqz	a5,200003f2 <I2C_IRQHandler+0x2c6>
/home/flinux/Downloads/ch583-main/EVT/EXAM/my_code_new/obj/../src/app_i2c.c:377
                    I2C_ITConfig(I2C_IT_EVT, DISABLE);
20000394:	800185a3          	sb	zero,-2037(gp) # 20000f0b <is_nack_sent>
/home/flinux/Downloads/ch583-main/EVT/EXAM/my_code_new/obj/../src/app_i2c.c:378
                    I2C_ITConfig(I2C_IT_ERR, DISABLE);
20000398:	00001797          	auipc	a5,0x1
2000039c:	b6d7c783          	lbu	a5,-1171(a5) # 20000f05 <i2c_send_stop>
200003a0:	cb89                	beqz	a5,200003b2 <I2C_IRQHandler+0x286>
/home/flinux/Downloads/ch583-main/EVT/EXAM/my_code_new/obj/../src/app_i2c.c:379
                    I2C_GenerateSTART(ENABLE);
200003a2:	4505                	li	a0,1
200003a4:	e0001097          	auipc	ra,0xe0001
200003a8:	d24080e7          	jalr	-732(ra) # 10c8 <I2C_GenerateSTOP>
/home/flinux/Downloads/ch583-main/EVT/EXAM/my_code_new/obj/../src/app_i2c.c:389
        if (event & RB_I2C_ADDR) {
200003ac:	80018523          	sb	zero,-2038(gp) # 20000f0a <i2c_state>
200003b0:	bf25                	j	200002e8 <I2C_IRQHandler+0x1bc>
/home/flinux/Downloads/ch583-main/EVT/EXAM/my_code_new/obj/../src/app_i2c.c:383
            }
200003b2:	4785                	li	a5,1
/home/flinux/Downloads/ch583-main/EVT/EXAM/my_code_new/obj/../src/app_i2c.c:385

200003b4:	4581                	li	a1,0
200003b6:	40000513          	li	a0,1024
/home/flinux/Downloads/ch583-main/EVT/EXAM/my_code_new/obj/../src/app_i2c.c:383
            }
200003ba:	00001717          	auipc	a4,0x1
200003be:	b4f70423          	sb	a5,-1208(a4) # 20000f02 <i2c_in_repstart>
/home/flinux/Downloads/ch583-main/EVT/EXAM/my_code_new/obj/../src/app_i2c.c:385

200003c2:	e0001097          	auipc	ra,0xe0001
200003c6:	d4a080e7          	jalr	-694(ra) # 110c <I2C_ITConfig>
/home/flinux/Downloads/ch583-main/EVT/EXAM/my_code_new/obj/../src/app_i2c.c:386
    } else {
200003ca:	4581                	li	a1,0
200003cc:	20000513          	li	a0,512
200003d0:	e0001097          	auipc	ra,0xe0001
200003d4:	d3c080e7          	jalr	-708(ra) # 110c <I2C_ITConfig>
/home/flinux/Downloads/ch583-main/EVT/EXAM/my_code_new/obj/../src/app_i2c.c:387
    /* I2C slave */
200003d8:	4581                	li	a1,0
200003da:	10000513          	li	a0,256
200003de:	e0001097          	auipc	ra,0xe0001
200003e2:	d2e080e7          	jalr	-722(ra) # 110c <I2C_ITConfig>
/home/flinux/Downloads/ch583-main/EVT/EXAM/my_code_new/obj/../src/app_i2c.c:388
        /* addressed, returned ack */
200003e6:	4505                	li	a0,1
200003e8:	e0001097          	auipc	ra,0xe0001
200003ec:	cbe080e7          	jalr	-834(ra) # 10a6 <I2C_GenerateSTART>
200003f0:	bf75                	j	200003ac <I2C_IRQHandler+0x280>
/home/flinux/Downloads/ch583-main/EVT/EXAM/my_code_new/obj/../src/app_i2c.c:394
                i2c_state = I2C_STX;
200003f2:	4785                	li	a5,1
200003f4:	80f185a3          	sb	a5,-2037(gp) # 20000f0b <is_nack_sent>
200003f8:	bdc5                	j	200002e8 <I2C_IRQHandler+0x1bc>
/home/flinux/Downloads/ch583-main/EVT/EXAM/my_code_new/obj/../src/app_i2c.c:429
                    /* copy data to output register */
200003fa:	00257793          	andi	a5,a0,2
200003fe:	cb8d                	beqz	a5,20000430 <I2C_IRQHandler+0x304>
/home/flinux/Downloads/ch583-main/EVT/EXAM/my_code_new/obj/../src/app_i2c.c:431
                    I2C_DBG("  send (%#x)\n", 
20000400:	000407b7          	lui	a5,0x40
20000404:	08078793          	addi	a5,a5,128 # 40080 <_data_lma+0x3ee0c>
20000408:	8fe9                	and	a5,a5,a0
2000040a:	cfe1                	beqz	a5,200004e2 <I2C_IRQHandler+0x3b6>
/home/flinux/Downloads/ch583-main/EVT/EXAM/my_code_new/obj/../src/app_i2c.c:434
                    I2C_SendData(0xff);
2000040c:	4791                	li	a5,4
2000040e:	80f18523          	sb	a5,-2038(gp) # 20000f0a <i2c_state>
/home/flinux/Downloads/ch583-main/EVT/EXAM/my_code_new/obj/../src/app_i2c.c:435
                    I2C_DBG("  no more data, send 0xff\n");
20000412:	80018423          	sb	zero,-2040(gp) # 20000f08 <i2c_slave_txbuffer_index>
/home/flinux/Downloads/ch583-main/EVT/EXAM/my_code_new/obj/../src/app_i2c.c:436
                }
20000416:	800184a3          	sb	zero,-2039(gp) # 20000f09 <i2c_slave_txbuffer_length>
/home/flinux/Downloads/ch583-main/EVT/EXAM/my_code_new/obj/../src/app_i2c.c:438
        } else {
2000041a:	80c18793          	addi	a5,gp,-2036 # 20000f0c <slave_cb>
2000041e:	439c                	lw	a5,0(a5)
20000420:	cb81                	beqz	a5,20000430 <I2C_IRQHandler+0x304>
/home/flinux/Downloads/ch583-main/EVT/EXAM/my_code_new/obj/../src/app_i2c.c:438 (discriminator 1)
20000422:	439c                	lw	a5,0(a5)
20000424:	c791                	beqz	a5,20000430 <I2C_IRQHandler+0x304>
/home/flinux/Downloads/ch583-main/EVT/EXAM/my_code_new/obj/../src/app_i2c.c:439
            /* Slave receiver */
20000426:	80918593          	addi	a1,gp,-2039 # 20000f09 <i2c_slave_txbuffer_length>
2000042a:	8b818513          	addi	a0,gp,-1864 # 20000fb8 <i2c_slave_txbuffer>
2000042e:	9782                	jalr	a5
/home/flinux/Downloads/ch583-main/EVT/EXAM/my_code_new/obj/../src/app_i2c.c:449
                            i2c_slave_rxbuffer[i2c_slave_rxbuffer_index - 1]);
20000430:	00d41793          	slli	a5,s0,0xd
20000434:	0e07df63          	bgez	a5,20000532 <I2C_IRQHandler+0x406>
/home/flinux/Downloads/ch583-main/EVT/EXAM/my_code_new/obj/../src/app_i2c.c:451
                    // otherwise nack
20000438:	4505                	li	a0,1
2000043a:	e0001097          	auipc	ra,0xe0001
2000043e:	cb0080e7          	jalr	-848(ra) # 10ea <I2C_AcknowledgeConfig>
/home/flinux/Downloads/ch583-main/EVT/EXAM/my_code_new/obj/../src/app_i2c.c:454
            }
20000442:	c8c5                	beqz	s1,200004f2 <I2C_IRQHandler+0x3c6>
/home/flinux/Downloads/ch583-main/EVT/EXAM/my_code_new/obj/../src/app_i2c.c:456
            if (event & RB_I2C_STOPF) {
20000444:	10000537          	lui	a0,0x10000
20000448:	40050513          	addi	a0,a0,1024 # 10000400 <_data_lma+0xffff18c>
2000044c:	e0001097          	auipc	ra,0xe0001
20000450:	d0c080e7          	jalr	-756(ra) # 1158 <I2C_ClearFlag>
/home/flinux/Downloads/ch583-main/EVT/EXAM/my_code_new/obj/../src/app_i2c.c:457
                /* ack future responses and leave slave receiver state */
20000454:	4505                	li	a0,1
20000456:	e0001097          	auipc	ra,0xe0001
2000045a:	c94080e7          	jalr	-876(ra) # 10ea <I2C_AcknowledgeConfig>
/home/flinux/Downloads/ch583-main/EVT/EXAM/my_code_new/obj/../src/app_i2c.c:463
                if (slave_cb && slave_cb->on_receive) {
2000045e:	4401                	li	s0,0
/home/flinux/Downloads/ch583-main/EVT/EXAM/my_code_new/obj/../src/app_i2c.c:461

20000460:	80018523          	sb	zero,-2038(gp) # 20000f0a <i2c_state>
/home/flinux/Downloads/ch583-main/EVT/EXAM/my_code_new/obj/../src/app_i2c.c:534
20000464:	6505                	lui	a0,0x1
20000466:	80050513          	addi	a0,a0,-2048 # 800 <__stack_size+0x600>
2000046a:	00a477b3          	and	a5,s0,a0
2000046e:	cb91                	beqz	a5,20000482 <I2C_IRQHandler+0x356>
/home/flinux/Downloads/ch583-main/EVT/EXAM/my_code_new/obj/../src/app_i2c.c:535
20000470:	e0001097          	auipc	ra,0xe0001
20000474:	ce8080e7          	jalr	-792(ra) # 1158 <I2C_ClearFlag>
/home/flinux/Downloads/ch583-main/EVT/EXAM/my_code_new/obj/../src/app_i2c.c:537
20000478:	4799                	li	a5,6
2000047a:	00001717          	auipc	a4,0x1
2000047e:	a8f703a3          	sb	a5,-1401(a4) # 20000f01 <i2c_error>
/home/flinux/Downloads/ch583-main/EVT/EXAM/my_code_new/obj/../src/app_i2c.c:541
20000482:	01341793          	slli	a5,s0,0x13
20000486:	0007dc63          	bgez	a5,2000049e <I2C_IRQHandler+0x372>
/home/flinux/Downloads/ch583-main/EVT/EXAM/my_code_new/obj/../src/app_i2c.c:542
2000048a:	6505                	lui	a0,0x1
2000048c:	e0001097          	auipc	ra,0xe0001
20000490:	ccc080e7          	jalr	-820(ra) # 1158 <I2C_ClearFlag>
/home/flinux/Downloads/ch583-main/EVT/EXAM/my_code_new/obj/../src/app_i2c.c:544
20000494:	479d                	li	a5,7
20000496:	00001717          	auipc	a4,0x1
2000049a:	a6f705a3          	sb	a5,-1429(a4) # 20000f01 <i2c_error>
/home/flinux/Downloads/ch583-main/EVT/EXAM/my_code_new/obj/../src/app_i2c.c:548
2000049e:	01141793          	slli	a5,s0,0x11
200004a2:	0007dc63          	bgez	a5,200004ba <I2C_IRQHandler+0x38e>
/home/flinux/Downloads/ch583-main/EVT/EXAM/my_code_new/obj/../src/app_i2c.c:549
200004a6:	6511                	lui	a0,0x4
200004a8:	e0001097          	auipc	ra,0xe0001
200004ac:	cb0080e7          	jalr	-848(ra) # 1158 <I2C_ClearFlag>
/home/flinux/Downloads/ch583-main/EVT/EXAM/my_code_new/obj/../src/app_i2c.c:551
200004b0:	47a1                	li	a5,8
200004b2:	00001717          	auipc	a4,0x1
200004b6:	a4f707a3          	sb	a5,-1457(a4) # 20000f01 <i2c_error>
/home/flinux/Downloads/ch583-main/EVT/EXAM/my_code_new/obj/../src/app_i2c.c:555
200004ba:	01041793          	slli	a5,s0,0x10
200004be:	0007dc63          	bgez	a5,200004d6 <I2C_IRQHandler+0x3aa>
/home/flinux/Downloads/ch583-main/EVT/EXAM/my_code_new/obj/../src/app_i2c.c:556
200004c2:	6521                	lui	a0,0x8
200004c4:	e0001097          	auipc	ra,0xe0001
200004c8:	c94080e7          	jalr	-876(ra) # 1158 <I2C_ClearFlag>
/home/flinux/Downloads/ch583-main/EVT/EXAM/my_code_new/obj/../src/app_i2c.c:558
200004cc:	47a5                	li	a5,9
200004ce:	00001717          	auipc	a4,0x1
200004d2:	a2f709a3          	sb	a5,-1485(a4) # 20000f01 <i2c_error>
/home/flinux/Downloads/ch583-main/EVT/EXAM/my_code_new/obj/../src/app_i2c.c:563
200004d6:	4432                	lw	s0,12(sp)
200004d8:	44a2                	lw	s1,8(sp)
200004da:	4912                	lw	s2,4(sp)
200004dc:	0141                	addi	sp,sp,16
200004de:	30200073          	mret
/home/flinux/Downloads/ch583-main/EVT/EXAM/my_code_new/obj/../src/app_i2c.c:444
                if (i2c_slave_rxbuffer_index < I2C_BUFFER_LENGTH) {
200004e2:	478d                	li	a5,3
200004e4:	80f18523          	sb	a5,-2038(gp) # 20000f0a <i2c_state>
/home/flinux/Downloads/ch583-main/EVT/EXAM/my_code_new/obj/../src/app_i2c.c:445
                    /* put byte in buffer and ack */
200004e8:	00001797          	auipc	a5,0x1
200004ec:	a0078fa3          	sb	zero,-1505(a5) # 20000f07 <i2c_slave_rxbuffer_index>
200004f0:	b781                	j	20000430 <I2C_IRQHandler+0x304>
/home/flinux/Downloads/ch583-main/EVT/EXAM/my_code_new/obj/../src/app_i2c.c:466
                /* since we submit rx buffer , we can reset it */
200004f2:	08447793          	andi	a5,s0,132
200004f6:	ce0785e3          	beqz	a5,200001e0 <I2C_IRQHandler+0xb4>
/home/flinux/Downloads/ch583-main/EVT/EXAM/my_code_new/obj/../src/app_i2c.c:468
            }
200004fa:	8081c783          	lbu	a5,-2040(gp) # 20000f08 <i2c_slave_txbuffer_index>
200004fe:	8091c703          	lbu	a4,-2039(gp) # 20000f09 <i2c_slave_txbuffer_length>
/home/flinux/Downloads/ch583-main/EVT/EXAM/my_code_new/obj/../src/app_i2c.c:474
                I2C_AcknowledgeConfig(ENABLE);
20000502:	0ff00513          	li	a0,255
/home/flinux/Downloads/ch583-main/EVT/EXAM/my_code_new/obj/../src/app_i2c.c:468
            }
20000506:	02e7f163          	bgeu	a5,a4,20000528 <I2C_IRQHandler+0x3fc>
/home/flinux/Downloads/ch583-main/EVT/EXAM/my_code_new/obj/../src/app_i2c.c:470
            if (event & RB_I2C_AF) {  
2000050a:	80818793          	addi	a5,gp,-2040 # 20000f08 <i2c_slave_txbuffer_index>
2000050e:	0007c783          	lbu	a5,0(a5)
20000512:	0ff7f793          	andi	a5,a5,255
20000516:	00178713          	addi	a4,a5,1
2000051a:	80e18423          	sb	a4,-2040(gp) # 20000f08 <i2c_slave_txbuffer_index>
2000051e:	8b818713          	addi	a4,gp,-1864 # 20000fb8 <i2c_slave_txbuffer>
20000522:	97ba                	add	a5,a5,a4
20000524:	0007c503          	lbu	a0,0(a5)
/home/flinux/Downloads/ch583-main/EVT/EXAM/my_code_new/obj/../src/app_i2c.c:474
                I2C_AcknowledgeConfig(ENABLE);
20000528:	e0001097          	auipc	ra,0xe0001
2000052c:	c02080e7          	jalr	-1022(ra) # 112a <I2C_SendData>
20000530:	b945                	j	200001e0 <I2C_IRQHandler+0xb4>
/home/flinux/Downloads/ch583-main/EVT/EXAM/my_code_new/obj/../src/app_i2c.c:482

20000532:	04047793          	andi	a5,s0,64
20000536:	c7a9                	beqz	a5,20000580 <I2C_IRQHandler+0x454>
/home/flinux/Downloads/ch583-main/EVT/EXAM/my_code_new/obj/../src/app_i2c.c:484
        I2C_DBG("RB_I2C_BERR\n");
20000538:	00001717          	auipc	a4,0x1
2000053c:	9cf74703          	lbu	a4,-1585(a4) # 20000f07 <i2c_slave_rxbuffer_index>
20000540:	47fd                	li	a5,31
/home/flinux/Downloads/ch583-main/EVT/EXAM/my_code_new/obj/../src/app_i2c.c:492
    }
20000542:	4501                	li	a0,0
/home/flinux/Downloads/ch583-main/EVT/EXAM/my_code_new/obj/../src/app_i2c.c:484
        I2C_DBG("RB_I2C_BERR\n");
20000544:	02e7ea63          	bltu	a5,a4,20000578 <I2C_IRQHandler+0x44c>
/home/flinux/Downloads/ch583-main/EVT/EXAM/my_code_new/obj/../src/app_i2c.c:486

20000548:	00001797          	auipc	a5,0x1
2000054c:	9bf78793          	addi	a5,a5,-1601 # 20000f07 <i2c_slave_rxbuffer_index>
20000550:	0007c903          	lbu	s2,0(a5)
20000554:	0ff97913          	andi	s2,s2,255
20000558:	00190793          	addi	a5,s2,1
2000055c:	00001717          	auipc	a4,0x1
20000560:	9af705a3          	sb	a5,-1621(a4) # 20000f07 <i2c_slave_rxbuffer_index>
20000564:	e0001097          	auipc	ra,0xe0001
20000568:	bd0080e7          	jalr	-1072(ra) # 1134 <I2C_ReceiveData>
2000056c:	89818793          	addi	a5,gp,-1896 # 20000f98 <i2c_slave_rxbuffer>
20000570:	993e                	add	s2,s2,a5
20000572:	00a90023          	sb	a0,0(s2)
/home/flinux/Downloads/ch583-main/EVT/EXAM/my_code_new/obj/../src/app_i2c.c:487
    if (event & RB_I2C_ARLO) {
20000576:	4505                	li	a0,1
/home/flinux/Downloads/ch583-main/EVT/EXAM/my_code_new/obj/../src/app_i2c.c:492
    }
20000578:	e0001097          	auipc	ra,0xe0001
2000057c:	b72080e7          	jalr	-1166(ra) # 10ea <I2C_AcknowledgeConfig>
/home/flinux/Downloads/ch583-main/EVT/EXAM/my_code_new/obj/../src/app_i2c.c:496
        
20000580:	01047793          	andi	a5,s0,16
20000584:	cb95                	beqz	a5,200005b8 <I2C_IRQHandler+0x48c>
/home/flinux/Downloads/ch583-main/EVT/EXAM/my_code_new/obj/../src/app_i2c.c:498
        I2C_DBG("RB_I2C_OVR\n");
20000586:	40005737          	lui	a4,0x40005
2000058a:	80075783          	lhu	a5,-2048(a4) # 40004800 <_eusrstack+0x1fffc800>
2000058e:	0017e793          	ori	a5,a5,1
20000592:	80f71023          	sh	a5,-2048(a4)
/home/flinux/Downloads/ch583-main/EVT/EXAM/my_code_new/obj/../src/app_i2c.c:503
        
20000596:	80c18793          	addi	a5,gp,-2036 # 20000f0c <slave_cb>
2000059a:	439c                	lw	a5,0(a5)
2000059c:	cb91                	beqz	a5,200005b0 <I2C_IRQHandler+0x484>
/home/flinux/Downloads/ch583-main/EVT/EXAM/my_code_new/obj/../src/app_i2c.c:503 (discriminator 1)
2000059e:	43dc                	lw	a5,4(a5)
200005a0:	cb81                	beqz	a5,200005b0 <I2C_IRQHandler+0x484>
/home/flinux/Downloads/ch583-main/EVT/EXAM/my_code_new/obj/../src/app_i2c.c:504
        i2c_error = I2C_PECERR;
200005a2:	00001597          	auipc	a1,0x1
200005a6:	9655c583          	lbu	a1,-1691(a1) # 20000f07 <i2c_slave_rxbuffer_index>
200005aa:	89818513          	addi	a0,gp,-1896 # 20000f98 <i2c_slave_rxbuffer>
200005ae:	9782                	jalr	a5
/home/flinux/Downloads/ch583-main/EVT/EXAM/my_code_new/obj/../src/app_i2c.c:507

200005b0:	00001797          	auipc	a5,0x1
200005b4:	94078ba3          	sb	zero,-1705(a5) # 20000f07 <i2c_slave_rxbuffer_index>
/home/flinux/Downloads/ch583-main/EVT/EXAM/my_code_new/obj/../src/app_i2c.c:510
        
200005b8:	c20484e3          	beqz	s1,200001e0 <I2C_IRQHandler+0xb4>
/home/flinux/Downloads/ch583-main/EVT/EXAM/my_code_new/obj/../src/app_i2c.c:511
        i2c_error = I2C_TIMEOUT;
200005bc:	10000537          	lui	a0,0x10000
200005c0:	40050513          	addi	a0,a0,1024 # 10000400 <_data_lma+0xffff18c>
200005c4:	e0001097          	auipc	ra,0xe0001
200005c8:	b94080e7          	jalr	-1132(ra) # 1158 <I2C_ClearFlag>
/home/flinux/Downloads/ch583-main/EVT/EXAM/my_code_new/obj/../src/app_i2c.c:514

200005cc:	4505                	li	a0,1
200005ce:	e0001097          	auipc	ra,0xe0001
200005d2:	b1c080e7          	jalr	-1252(ra) # 10ea <I2C_AcknowledgeConfig>
200005d6:	b129                	j	200001e0 <I2C_IRQHandler+0xb4>

200005d8 <SetSysClock>:
sys_safe_access_enable():
/home/flinux/Downloads/ch583-main/EVT/EXAM/my_code_new/obj/../StdPeriphDriver/inc/CH58x_sys.h:182
 * within the valid period. The safe mode will be automatically 
 * terminated after the above validity period is exceeded.
 */
 __attribute__((always_inline)) static inline void sys_safe_access_enable(void)
{
   if(read_csr(0x800)&0x08)
200005d8:	80002773          	csrr	a4,0x800
200005dc:	8b21                	andi	a4,a4,8
200005de:	81018793          	addi	a5,gp,-2032 # 20000f10 <IRQ_STA>
200005e2:	cb09                	beqz	a4,200005f4 <SetSysClock+0x1c>
/home/flinux/Downloads/ch583-main/EVT/EXAM/my_code_new/obj/../StdPeriphDriver/inc/CH58x_sys.h:184
   {
       IRQ_STA = read_csr(0x800);
200005e4:	80002773          	csrr	a4,0x800
200005e8:	80e1a823          	sw	a4,-2032(gp) # 20000f10 <IRQ_STA>
/home/flinux/Downloads/ch583-main/EVT/EXAM/my_code_new/obj/../StdPeriphDriver/inc/CH58x_sys.h:185
       write_csr(0x800, (IRQ_STA&(~0x08)));
200005ec:	4398                	lw	a4,0(a5)
200005ee:	9b5d                	andi	a4,a4,-9
200005f0:	80071073          	csrw	0x800,a4
/home/flinux/Downloads/ch583-main/EVT/EXAM/my_code_new/obj/../StdPeriphDriver/inc/CH58x_sys.h:187
   }
   SAFEOPERATE;
200005f4:	0001                	nop
200005f6:	0001                	nop
/home/flinux/Downloads/ch583-main/EVT/EXAM/my_code_new/obj/../StdPeriphDriver/inc/CH58x_sys.h:188
   R8_SAFE_ACCESS_SIG = SAFE_ACCESS_SIG1;
200005f8:	40001737          	lui	a4,0x40001
200005fc:	05700693          	li	a3,87
20000600:	04d70023          	sb	a3,64(a4) # 40001040 <_eusrstack+0x1fff9040>
/home/flinux/Downloads/ch583-main/EVT/EXAM/my_code_new/obj/../StdPeriphDriver/inc/CH58x_sys.h:189
   R8_SAFE_ACCESS_SIG = SAFE_ACCESS_SIG2;
20000604:	fa800693          	li	a3,-88
20000608:	04d70023          	sb	a3,64(a4)
/home/flinux/Downloads/ch583-main/EVT/EXAM/my_code_new/obj/../StdPeriphDriver/inc/CH58x_sys.h:190
   SAFEOPERATE;
2000060c:	0001                	nop
2000060e:	0001                	nop
SetSysClock():
/home/flinux/Downloads/ch583-main/EVT/EXAM/my_code_new/obj/../StdPeriphDriver/CH58x_sys.c:30
__HIGH_CODE
void SetSysClock(SYS_CLKTypeDef sc)
{
    uint32_t i;
    sys_safe_access_enable();
    R8_PLL_CONFIG &= ~(1 << 5); //
20000610:	04b74683          	lbu	a3,75(a4)
20000614:	0df6f693          	andi	a3,a3,223
20000618:	04d705a3          	sb	a3,75(a4)
sys_safe_access_disable():
/home/flinux/Downloads/ch583-main/EVT/EXAM/my_code_new/obj/../StdPeriphDriver/inc/CH58x_sys.h:195
}

__attribute__((always_inline)) static inline void sys_safe_access_disable(void)
{
   R8_SAFE_ACCESS_SIG = 0;
2000061c:	04070023          	sb	zero,64(a4)
/home/flinux/Downloads/ch583-main/EVT/EXAM/my_code_new/obj/../StdPeriphDriver/inc/CH58x_sys.h:196
   write_csr(0x800, read_csr(0x800)|(IRQ_STA&0x08));
20000620:	80002673          	csrr	a2,0x800
20000624:	4394                	lw	a3,0(a5)
20000626:	8aa1                	andi	a3,a3,8
20000628:	8ed1                	or	a3,a3,a2
2000062a:	80069073          	csrw	0x800,a3
/home/flinux/Downloads/ch583-main/EVT/EXAM/my_code_new/obj/../StdPeriphDriver/inc/CH58x_sys.h:197
   IRQ_STA = 0;
2000062e:	8001a823          	sw	zero,-2032(gp) # 20000f10 <IRQ_STA>
/home/flinux/Downloads/ch583-main/EVT/EXAM/my_code_new/obj/../StdPeriphDriver/inc/CH58x_sys.h:198
   SAFEOPERATE;
20000632:	0001                	nop
20000634:	0001                	nop
SetSysClock():
/home/flinux/Downloads/ch583-main/EVT/EXAM/my_code_new/obj/../StdPeriphDriver/CH58x_sys.c:32
    sys_safe_access_disable();
    if(sc & 0x20)
20000636:	02057693          	andi	a3,a0,32
2000063a:	18068463          	beqz	a3,200007c2 <SetSysClock+0x1ea>
/home/flinux/Downloads/ch583-main/EVT/EXAM/my_code_new/obj/../StdPeriphDriver/CH58x_sys.c:34
    { // HSE div
        if(!(R8_HFCK_PWR_CTRL & RB_CLK_XT32M_PON))
2000063e:	00a74703          	lbu	a4,10(a4)
20000642:	8b11                	andi	a4,a4,4
20000644:	e725                	bnez	a4,200006ac <SetSysClock+0xd4>
sys_safe_access_enable():
/home/flinux/Downloads/ch583-main/EVT/EXAM/my_code_new/obj/../StdPeriphDriver/inc/CH58x_sys.h:182
   if(read_csr(0x800)&0x08)
20000646:	80002773          	csrr	a4,0x800
2000064a:	8b21                	andi	a4,a4,8
2000064c:	cb09                	beqz	a4,2000065e <SetSysClock+0x86>
/home/flinux/Downloads/ch583-main/EVT/EXAM/my_code_new/obj/../StdPeriphDriver/inc/CH58x_sys.h:184
       IRQ_STA = read_csr(0x800);
2000064e:	80002773          	csrr	a4,0x800
20000652:	80e1a823          	sw	a4,-2032(gp) # 20000f10 <IRQ_STA>
/home/flinux/Downloads/ch583-main/EVT/EXAM/my_code_new/obj/../StdPeriphDriver/inc/CH58x_sys.h:185
       write_csr(0x800, (IRQ_STA&(~0x08)));
20000656:	4398                	lw	a4,0(a5)
20000658:	9b5d                	andi	a4,a4,-9
2000065a:	80071073          	csrw	0x800,a4
/home/flinux/Downloads/ch583-main/EVT/EXAM/my_code_new/obj/../StdPeriphDriver/inc/CH58x_sys.h:187
   SAFEOPERATE;
2000065e:	0001                	nop
20000660:	0001                	nop
/home/flinux/Downloads/ch583-main/EVT/EXAM/my_code_new/obj/../StdPeriphDriver/inc/CH58x_sys.h:188
   R8_SAFE_ACCESS_SIG = SAFE_ACCESS_SIG1;
20000662:	40001737          	lui	a4,0x40001
20000666:	05700693          	li	a3,87
2000066a:	04d70023          	sb	a3,64(a4) # 40001040 <_eusrstack+0x1fff9040>
/home/flinux/Downloads/ch583-main/EVT/EXAM/my_code_new/obj/../StdPeriphDriver/inc/CH58x_sys.h:189
   R8_SAFE_ACCESS_SIG = SAFE_ACCESS_SIG2;
2000066e:	fa800693          	li	a3,-88
20000672:	04d70023          	sb	a3,64(a4)
/home/flinux/Downloads/ch583-main/EVT/EXAM/my_code_new/obj/../StdPeriphDriver/inc/CH58x_sys.h:190
   SAFEOPERATE;
20000676:	0001                	nop
20000678:	0001                	nop
SetSysClock():
/home/flinux/Downloads/ch583-main/EVT/EXAM/my_code_new/obj/../StdPeriphDriver/CH58x_sys.c:37
        {
            sys_safe_access_enable();
            R8_HFCK_PWR_CTRL |= RB_CLK_XT32M_PON; // HSE power on
2000067a:	00a74683          	lbu	a3,10(a4)
2000067e:	0046e693          	ori	a3,a3,4
20000682:	00d70523          	sb	a3,10(a4)
sys_safe_access_disable():
/home/flinux/Downloads/ch583-main/EVT/EXAM/my_code_new/obj/../StdPeriphDriver/inc/CH58x_sys.h:195
   R8_SAFE_ACCESS_SIG = 0;
20000686:	04070023          	sb	zero,64(a4)
/home/flinux/Downloads/ch583-main/EVT/EXAM/my_code_new/obj/../StdPeriphDriver/inc/CH58x_sys.h:196
   write_csr(0x800, read_csr(0x800)|(IRQ_STA&0x08));
2000068a:	800026f3          	csrr	a3,0x800
2000068e:	4398                	lw	a4,0(a5)
20000690:	8b21                	andi	a4,a4,8
20000692:	8f55                	or	a4,a4,a3
20000694:	80071073          	csrw	0x800,a4
/home/flinux/Downloads/ch583-main/EVT/EXAM/my_code_new/obj/../StdPeriphDriver/inc/CH58x_sys.h:197
   IRQ_STA = 0;
20000698:	8001a823          	sw	zero,-2032(gp) # 20000f10 <IRQ_STA>
/home/flinux/Downloads/ch583-main/EVT/EXAM/my_code_new/obj/../StdPeriphDriver/inc/CH58x_sys.h:198
   SAFEOPERATE;
2000069c:	0001                	nop
2000069e:	0001                	nop
200006a0:	4b000713          	li	a4,1200
SetSysClock():
/home/flinux/Downloads/ch583-main/EVT/EXAM/my_code_new/obj/../StdPeriphDriver/CH58x_sys.c:41 (discriminator 3)
            sys_safe_access_disable();
            for(i = 0; i < 1200; i++)
            {
                __nop();
200006a4:	0001                	nop
/home/flinux/Downloads/ch583-main/EVT/EXAM/my_code_new/obj/../StdPeriphDriver/CH58x_sys.c:42 (discriminator 3)
                __nop();
200006a6:	0001                	nop
200006a8:	177d                	addi	a4,a4,-1
/home/flinux/Downloads/ch583-main/EVT/EXAM/my_code_new/obj/../StdPeriphDriver/CH58x_sys.c:39 (discriminator 3)
            for(i = 0; i < 1200; i++)
200006aa:	ff6d                	bnez	a4,200006a4 <SetSysClock+0xcc>
sys_safe_access_enable():
/home/flinux/Downloads/ch583-main/EVT/EXAM/my_code_new/obj/../StdPeriphDriver/inc/CH58x_sys.h:182
   if(read_csr(0x800)&0x08)
200006ac:	80002773          	csrr	a4,0x800
200006b0:	8b21                	andi	a4,a4,8
200006b2:	cb09                	beqz	a4,200006c4 <SetSysClock+0xec>
/home/flinux/Downloads/ch583-main/EVT/EXAM/my_code_new/obj/../StdPeriphDriver/inc/CH58x_sys.h:184
       IRQ_STA = read_csr(0x800);
200006b4:	80002773          	csrr	a4,0x800
200006b8:	80e1a823          	sw	a4,-2032(gp) # 20000f10 <IRQ_STA>
/home/flinux/Downloads/ch583-main/EVT/EXAM/my_code_new/obj/../StdPeriphDriver/inc/CH58x_sys.h:185
       write_csr(0x800, (IRQ_STA&(~0x08)));
200006bc:	4398                	lw	a4,0(a5)
200006be:	9b5d                	andi	a4,a4,-9
200006c0:	80071073          	csrw	0x800,a4
/home/flinux/Downloads/ch583-main/EVT/EXAM/my_code_new/obj/../StdPeriphDriver/inc/CH58x_sys.h:187
   SAFEOPERATE;
200006c4:	0001                	nop
200006c6:	0001                	nop
/home/flinux/Downloads/ch583-main/EVT/EXAM/my_code_new/obj/../StdPeriphDriver/inc/CH58x_sys.h:188
   R8_SAFE_ACCESS_SIG = SAFE_ACCESS_SIG1;
200006c8:	40001737          	lui	a4,0x40001
200006cc:	05700693          	li	a3,87
200006d0:	04d70023          	sb	a3,64(a4) # 40001040 <_eusrstack+0x1fff9040>
/home/flinux/Downloads/ch583-main/EVT/EXAM/my_code_new/obj/../StdPeriphDriver/inc/CH58x_sys.h:189
   R8_SAFE_ACCESS_SIG = SAFE_ACCESS_SIG2;
200006d4:	fa800693          	li	a3,-88
200006d8:	04d70023          	sb	a3,64(a4)
/home/flinux/Downloads/ch583-main/EVT/EXAM/my_code_new/obj/../StdPeriphDriver/inc/CH58x_sys.h:190
   SAFEOPERATE;
200006dc:	0001                	nop
200006de:	0001                	nop
SetSysClock():
/home/flinux/Downloads/ch583-main/EVT/EXAM/my_code_new/obj/../StdPeriphDriver/CH58x_sys.c:47
            }
        }

        sys_safe_access_enable();
        R16_CLK_SYS_CFG = (0 << 6) | (sc & 0x1f);
200006e0:	897d                	andi	a0,a0,31
200006e2:	00a71423          	sh	a0,8(a4)
/home/flinux/Downloads/ch583-main/EVT/EXAM/my_code_new/obj/../StdPeriphDriver/CH58x_sys.c:48
        __nop();
200006e6:	0001                	nop
/home/flinux/Downloads/ch583-main/EVT/EXAM/my_code_new/obj/../StdPeriphDriver/CH58x_sys.c:49
        __nop();
200006e8:	0001                	nop
/home/flinux/Downloads/ch583-main/EVT/EXAM/my_code_new/obj/../StdPeriphDriver/CH58x_sys.c:50
        __nop();
200006ea:	0001                	nop
/home/flinux/Downloads/ch583-main/EVT/EXAM/my_code_new/obj/../StdPeriphDriver/CH58x_sys.c:51
        __nop();
200006ec:	0001                	nop
sys_safe_access_disable():
/home/flinux/Downloads/ch583-main/EVT/EXAM/my_code_new/obj/../StdPeriphDriver/inc/CH58x_sys.h:195
   R8_SAFE_ACCESS_SIG = 0;
200006ee:	04070023          	sb	zero,64(a4)
/home/flinux/Downloads/ch583-main/EVT/EXAM/my_code_new/obj/../StdPeriphDriver/inc/CH58x_sys.h:196
   write_csr(0x800, read_csr(0x800)|(IRQ_STA&0x08));
200006f2:	800026f3          	csrr	a3,0x800
200006f6:	4398                	lw	a4,0(a5)
200006f8:	8b21                	andi	a4,a4,8
200006fa:	8f55                	or	a4,a4,a3
200006fc:	80071073          	csrw	0x800,a4
/home/flinux/Downloads/ch583-main/EVT/EXAM/my_code_new/obj/../StdPeriphDriver/inc/CH58x_sys.h:197
   IRQ_STA = 0;
20000700:	8001a823          	sw	zero,-2032(gp) # 20000f10 <IRQ_STA>
/home/flinux/Downloads/ch583-main/EVT/EXAM/my_code_new/obj/../StdPeriphDriver/inc/CH58x_sys.h:198
   SAFEOPERATE;
20000704:	0001                	nop
20000706:	0001                	nop
sys_safe_access_enable():
/home/flinux/Downloads/ch583-main/EVT/EXAM/my_code_new/obj/../StdPeriphDriver/inc/CH58x_sys.h:182
   if(read_csr(0x800)&0x08)
20000708:	80002773          	csrr	a4,0x800
2000070c:	8b21                	andi	a4,a4,8
2000070e:	cb09                	beqz	a4,20000720 <SetSysClock+0x148>
/home/flinux/Downloads/ch583-main/EVT/EXAM/my_code_new/obj/../StdPeriphDriver/inc/CH58x_sys.h:184
       IRQ_STA = read_csr(0x800);
20000710:	80002773          	csrr	a4,0x800
20000714:	80e1a823          	sw	a4,-2032(gp) # 20000f10 <IRQ_STA>
/home/flinux/Downloads/ch583-main/EVT/EXAM/my_code_new/obj/../StdPeriphDriver/inc/CH58x_sys.h:185
       write_csr(0x800, (IRQ_STA&(~0x08)));
20000718:	4398                	lw	a4,0(a5)
2000071a:	9b5d                	andi	a4,a4,-9
2000071c:	80071073          	csrw	0x800,a4
/home/flinux/Downloads/ch583-main/EVT/EXAM/my_code_new/obj/../StdPeriphDriver/inc/CH58x_sys.h:187
   SAFEOPERATE;
20000720:	0001                	nop
20000722:	0001                	nop
/home/flinux/Downloads/ch583-main/EVT/EXAM/my_code_new/obj/../StdPeriphDriver/inc/CH58x_sys.h:188
   R8_SAFE_ACCESS_SIG = SAFE_ACCESS_SIG1;
20000724:	40001737          	lui	a4,0x40001
20000728:	05700693          	li	a3,87
2000072c:	04d70023          	sb	a3,64(a4) # 40001040 <_eusrstack+0x1fff9040>
/home/flinux/Downloads/ch583-main/EVT/EXAM/my_code_new/obj/../StdPeriphDriver/inc/CH58x_sys.h:189
   R8_SAFE_ACCESS_SIG = SAFE_ACCESS_SIG2;
20000730:	fa800693          	li	a3,-88
20000734:	04d70023          	sb	a3,64(a4)
/home/flinux/Downloads/ch583-main/EVT/EXAM/my_code_new/obj/../StdPeriphDriver/inc/CH58x_sys.h:190
   SAFEOPERATE;
20000738:	0001                	nop
2000073a:	0001                	nop
SetSysClock():
/home/flinux/Downloads/ch583-main/EVT/EXAM/my_code_new/obj/../StdPeriphDriver/CH58x_sys.c:54
        sys_safe_access_disable();
        sys_safe_access_enable();
        SAFEOPERATE;
2000073c:	0001                	nop
2000073e:	0001                	nop
/home/flinux/Downloads/ch583-main/EVT/EXAM/my_code_new/obj/../StdPeriphDriver/CH58x_sys.c:55
        R8_FLASH_CFG = 0X51;
20000740:	400026b7          	lui	a3,0x40002
20000744:	05100613          	li	a2,81
/home/flinux/Downloads/ch583-main/EVT/EXAM/my_code_new/obj/../StdPeriphDriver/CH58x_sys.c:88
            sys_safe_access_disable();
        }
        else
        {
            sys_safe_access_enable();
            R8_FLASH_CFG = 0X52;
20000748:	80c683a3          	sb	a2,-2041(a3) # 40001807 <_eusrstack+0x1fff9807>
sys_safe_access_disable():
/home/flinux/Downloads/ch583-main/EVT/EXAM/my_code_new/obj/../StdPeriphDriver/inc/CH58x_sys.h:195
   R8_SAFE_ACCESS_SIG = 0;
2000074c:	04070023          	sb	zero,64(a4)
/home/flinux/Downloads/ch583-main/EVT/EXAM/my_code_new/obj/../StdPeriphDriver/inc/CH58x_sys.h:196
   write_csr(0x800, read_csr(0x800)|(IRQ_STA&0x08));
20000750:	800026f3          	csrr	a3,0x800
20000754:	4398                	lw	a4,0(a5)
20000756:	8b21                	andi	a4,a4,8
20000758:	8f55                	or	a4,a4,a3
2000075a:	80071073          	csrw	0x800,a4
/home/flinux/Downloads/ch583-main/EVT/EXAM/my_code_new/obj/../StdPeriphDriver/inc/CH58x_sys.h:197
   IRQ_STA = 0;
2000075e:	8001a823          	sw	zero,-2032(gp) # 20000f10 <IRQ_STA>
/home/flinux/Downloads/ch583-main/EVT/EXAM/my_code_new/obj/../StdPeriphDriver/inc/CH58x_sys.h:198
   SAFEOPERATE;
20000762:	0001                	nop
20000764:	0001                	nop
sys_safe_access_enable():
/home/flinux/Downloads/ch583-main/EVT/EXAM/my_code_new/obj/../StdPeriphDriver/inc/CH58x_sys.h:182
   if(read_csr(0x800)&0x08)
20000766:	80002773          	csrr	a4,0x800
2000076a:	8b21                	andi	a4,a4,8
2000076c:	cb09                	beqz	a4,2000077e <SetSysClock+0x1a6>
/home/flinux/Downloads/ch583-main/EVT/EXAM/my_code_new/obj/../StdPeriphDriver/inc/CH58x_sys.h:184
       IRQ_STA = read_csr(0x800);
2000076e:	80002773          	csrr	a4,0x800
20000772:	80e1a823          	sw	a4,-2032(gp) # 20000f10 <IRQ_STA>
/home/flinux/Downloads/ch583-main/EVT/EXAM/my_code_new/obj/../StdPeriphDriver/inc/CH58x_sys.h:185
       write_csr(0x800, (IRQ_STA&(~0x08)));
20000776:	4398                	lw	a4,0(a5)
20000778:	9b5d                	andi	a4,a4,-9
2000077a:	80071073          	csrw	0x800,a4
/home/flinux/Downloads/ch583-main/EVT/EXAM/my_code_new/obj/../StdPeriphDriver/inc/CH58x_sys.h:187
   SAFEOPERATE;
2000077e:	0001                	nop
20000780:	0001                	nop
/home/flinux/Downloads/ch583-main/EVT/EXAM/my_code_new/obj/../StdPeriphDriver/inc/CH58x_sys.h:188
   R8_SAFE_ACCESS_SIG = SAFE_ACCESS_SIG1;
20000782:	40001737          	lui	a4,0x40001
20000786:	05700693          	li	a3,87
2000078a:	04d70023          	sb	a3,64(a4) # 40001040 <_eusrstack+0x1fff9040>
/home/flinux/Downloads/ch583-main/EVT/EXAM/my_code_new/obj/../StdPeriphDriver/inc/CH58x_sys.h:189
   R8_SAFE_ACCESS_SIG = SAFE_ACCESS_SIG2;
2000078e:	fa800693          	li	a3,-88
20000792:	04d70023          	sb	a3,64(a4)
/home/flinux/Downloads/ch583-main/EVT/EXAM/my_code_new/obj/../StdPeriphDriver/inc/CH58x_sys.h:190
   SAFEOPERATE;
20000796:	0001                	nop
20000798:	0001                	nop
SetSysClock():
/home/flinux/Downloads/ch583-main/EVT/EXAM/my_code_new/obj/../StdPeriphDriver/CH58x_sys.c:100
        R16_CLK_SYS_CFG |= RB_CLK_SYS_MOD;
        sys_safe_access_disable();
    }
    //FLASH clk
    sys_safe_access_enable();
    R8_PLL_CONFIG |= 1 << 7;
2000079a:	04b74683          	lbu	a3,75(a4)
2000079e:	0806e693          	ori	a3,a3,128
200007a2:	04d705a3          	sb	a3,75(a4)
sys_safe_access_disable():
/home/flinux/Downloads/ch583-main/EVT/EXAM/my_code_new/obj/../StdPeriphDriver/inc/CH58x_sys.h:195
   R8_SAFE_ACCESS_SIG = 0;
200007a6:	04070023          	sb	zero,64(a4)
/home/flinux/Downloads/ch583-main/EVT/EXAM/my_code_new/obj/../StdPeriphDriver/inc/CH58x_sys.h:196
   write_csr(0x800, read_csr(0x800)|(IRQ_STA&0x08));
200007aa:	80002773          	csrr	a4,0x800
200007ae:	439c                	lw	a5,0(a5)
200007b0:	8ba1                	andi	a5,a5,8
200007b2:	8fd9                	or	a5,a5,a4
200007b4:	80079073          	csrw	0x800,a5
/home/flinux/Downloads/ch583-main/EVT/EXAM/my_code_new/obj/../StdPeriphDriver/inc/CH58x_sys.h:197
   IRQ_STA = 0;
200007b8:	8001a823          	sw	zero,-2032(gp) # 20000f10 <IRQ_STA>
/home/flinux/Downloads/ch583-main/EVT/EXAM/my_code_new/obj/../StdPeriphDriver/inc/CH58x_sys.h:198
   SAFEOPERATE;
200007bc:	0001                	nop
200007be:	0001                	nop
SetSysClock():
/home/flinux/Downloads/ch583-main/EVT/EXAM/my_code_new/obj/../StdPeriphDriver/CH58x_sys.c:102
    sys_safe_access_disable();
}
200007c0:	8082                	ret
/home/flinux/Downloads/ch583-main/EVT/EXAM/my_code_new/obj/../StdPeriphDriver/CH58x_sys.c:59
    else if(sc & 0x40)
200007c2:	04057693          	andi	a3,a0,64
200007c6:	14068b63          	beqz	a3,2000091c <SetSysClock+0x344>
/home/flinux/Downloads/ch583-main/EVT/EXAM/my_code_new/obj/../StdPeriphDriver/CH58x_sys.c:61
        if(!(R8_HFCK_PWR_CTRL & RB_CLK_PLL_PON))
200007ca:	00a74703          	lbu	a4,10(a4)
200007ce:	8b41                	andi	a4,a4,16
200007d0:	e725                	bnez	a4,20000838 <SetSysClock+0x260>
sys_safe_access_enable():
/home/flinux/Downloads/ch583-main/EVT/EXAM/my_code_new/obj/../StdPeriphDriver/inc/CH58x_sys.h:182
   if(read_csr(0x800)&0x08)
200007d2:	80002773          	csrr	a4,0x800
200007d6:	8b21                	andi	a4,a4,8
200007d8:	cb09                	beqz	a4,200007ea <SetSysClock+0x212>
/home/flinux/Downloads/ch583-main/EVT/EXAM/my_code_new/obj/../StdPeriphDriver/inc/CH58x_sys.h:184
       IRQ_STA = read_csr(0x800);
200007da:	80002773          	csrr	a4,0x800
200007de:	80e1a823          	sw	a4,-2032(gp) # 20000f10 <IRQ_STA>
/home/flinux/Downloads/ch583-main/EVT/EXAM/my_code_new/obj/../StdPeriphDriver/inc/CH58x_sys.h:185
       write_csr(0x800, (IRQ_STA&(~0x08)));
200007e2:	4398                	lw	a4,0(a5)
200007e4:	9b5d                	andi	a4,a4,-9
200007e6:	80071073          	csrw	0x800,a4
/home/flinux/Downloads/ch583-main/EVT/EXAM/my_code_new/obj/../StdPeriphDriver/inc/CH58x_sys.h:187
   SAFEOPERATE;
200007ea:	0001                	nop
200007ec:	0001                	nop
/home/flinux/Downloads/ch583-main/EVT/EXAM/my_code_new/obj/../StdPeriphDriver/inc/CH58x_sys.h:188
   R8_SAFE_ACCESS_SIG = SAFE_ACCESS_SIG1;
200007ee:	40001737          	lui	a4,0x40001
200007f2:	05700693          	li	a3,87
200007f6:	04d70023          	sb	a3,64(a4) # 40001040 <_eusrstack+0x1fff9040>
/home/flinux/Downloads/ch583-main/EVT/EXAM/my_code_new/obj/../StdPeriphDriver/inc/CH58x_sys.h:189
   R8_SAFE_ACCESS_SIG = SAFE_ACCESS_SIG2;
200007fa:	fa800693          	li	a3,-88
200007fe:	04d70023          	sb	a3,64(a4)
/home/flinux/Downloads/ch583-main/EVT/EXAM/my_code_new/obj/../StdPeriphDriver/inc/CH58x_sys.h:190
   SAFEOPERATE;
20000802:	0001                	nop
20000804:	0001                	nop
SetSysClock():
/home/flinux/Downloads/ch583-main/EVT/EXAM/my_code_new/obj/../StdPeriphDriver/CH58x_sys.c:64
            R8_HFCK_PWR_CTRL |= RB_CLK_PLL_PON; // PLL power on
20000806:	00a74683          	lbu	a3,10(a4)
2000080a:	0106e693          	ori	a3,a3,16
2000080e:	00d70523          	sb	a3,10(a4)
sys_safe_access_disable():
/home/flinux/Downloads/ch583-main/EVT/EXAM/my_code_new/obj/../StdPeriphDriver/inc/CH58x_sys.h:195
   R8_SAFE_ACCESS_SIG = 0;
20000812:	04070023          	sb	zero,64(a4)
/home/flinux/Downloads/ch583-main/EVT/EXAM/my_code_new/obj/../StdPeriphDriver/inc/CH58x_sys.h:196
   write_csr(0x800, read_csr(0x800)|(IRQ_STA&0x08));
20000816:	800026f3          	csrr	a3,0x800
2000081a:	4398                	lw	a4,0(a5)
2000081c:	8b21                	andi	a4,a4,8
2000081e:	8f55                	or	a4,a4,a3
20000820:	80071073          	csrw	0x800,a4
/home/flinux/Downloads/ch583-main/EVT/EXAM/my_code_new/obj/../StdPeriphDriver/inc/CH58x_sys.h:197
   IRQ_STA = 0;
20000824:	8001a823          	sw	zero,-2032(gp) # 20000f10 <IRQ_STA>
/home/flinux/Downloads/ch583-main/EVT/EXAM/my_code_new/obj/../StdPeriphDriver/inc/CH58x_sys.h:198
   SAFEOPERATE;
20000828:	0001                	nop
2000082a:	0001                	nop
2000082c:	7d000713          	li	a4,2000
SetSysClock():
/home/flinux/Downloads/ch583-main/EVT/EXAM/my_code_new/obj/../StdPeriphDriver/CH58x_sys.c:68 (discriminator 3)
                __nop();
20000830:	0001                	nop
/home/flinux/Downloads/ch583-main/EVT/EXAM/my_code_new/obj/../StdPeriphDriver/CH58x_sys.c:69 (discriminator 3)
                __nop();
20000832:	0001                	nop
20000834:	177d                	addi	a4,a4,-1
/home/flinux/Downloads/ch583-main/EVT/EXAM/my_code_new/obj/../StdPeriphDriver/CH58x_sys.c:66 (discriminator 3)
            for(i = 0; i < 2000; i++)
20000836:	ff6d                	bnez	a4,20000830 <SetSysClock+0x258>
sys_safe_access_enable():
/home/flinux/Downloads/ch583-main/EVT/EXAM/my_code_new/obj/../StdPeriphDriver/inc/CH58x_sys.h:182
   if(read_csr(0x800)&0x08)
20000838:	80002773          	csrr	a4,0x800
2000083c:	8b21                	andi	a4,a4,8
2000083e:	cb09                	beqz	a4,20000850 <SetSysClock+0x278>
/home/flinux/Downloads/ch583-main/EVT/EXAM/my_code_new/obj/../StdPeriphDriver/inc/CH58x_sys.h:184
       IRQ_STA = read_csr(0x800);
20000840:	80002773          	csrr	a4,0x800
20000844:	80e1a823          	sw	a4,-2032(gp) # 20000f10 <IRQ_STA>
/home/flinux/Downloads/ch583-main/EVT/EXAM/my_code_new/obj/../StdPeriphDriver/inc/CH58x_sys.h:185
       write_csr(0x800, (IRQ_STA&(~0x08)));
20000848:	4398                	lw	a4,0(a5)
2000084a:	9b5d                	andi	a4,a4,-9
2000084c:	80071073          	csrw	0x800,a4
/home/flinux/Downloads/ch583-main/EVT/EXAM/my_code_new/obj/../StdPeriphDriver/inc/CH58x_sys.h:187
   SAFEOPERATE;
20000850:	0001                	nop
20000852:	0001                	nop
/home/flinux/Downloads/ch583-main/EVT/EXAM/my_code_new/obj/../StdPeriphDriver/inc/CH58x_sys.h:188
   R8_SAFE_ACCESS_SIG = SAFE_ACCESS_SIG1;
20000854:	40001737          	lui	a4,0x40001
20000858:	05700693          	li	a3,87
2000085c:	04d70023          	sb	a3,64(a4) # 40001040 <_eusrstack+0x1fff9040>
/home/flinux/Downloads/ch583-main/EVT/EXAM/my_code_new/obj/../StdPeriphDriver/inc/CH58x_sys.h:189
   R8_SAFE_ACCESS_SIG = SAFE_ACCESS_SIG2;
20000860:	fa800693          	li	a3,-88
20000864:	04d70023          	sb	a3,64(a4)
/home/flinux/Downloads/ch583-main/EVT/EXAM/my_code_new/obj/../StdPeriphDriver/inc/CH58x_sys.h:190
   SAFEOPERATE;
20000868:	0001                	nop
2000086a:	0001                	nop
SetSysClock():
/home/flinux/Downloads/ch583-main/EVT/EXAM/my_code_new/obj/../StdPeriphDriver/CH58x_sys.c:73
        R16_CLK_SYS_CFG = (1 << 6) | (sc & 0x1f);
2000086c:	01f57693          	andi	a3,a0,31
20000870:	0406e693          	ori	a3,a3,64
20000874:	00d71423          	sh	a3,8(a4)
/home/flinux/Downloads/ch583-main/EVT/EXAM/my_code_new/obj/../StdPeriphDriver/CH58x_sys.c:74
        __nop();
20000878:	0001                	nop
/home/flinux/Downloads/ch583-main/EVT/EXAM/my_code_new/obj/../StdPeriphDriver/CH58x_sys.c:75
        __nop();
2000087a:	0001                	nop
/home/flinux/Downloads/ch583-main/EVT/EXAM/my_code_new/obj/../StdPeriphDriver/CH58x_sys.c:76
        __nop();
2000087c:	0001                	nop
/home/flinux/Downloads/ch583-main/EVT/EXAM/my_code_new/obj/../StdPeriphDriver/CH58x_sys.c:77
        __nop();
2000087e:	0001                	nop
sys_safe_access_disable():
/home/flinux/Downloads/ch583-main/EVT/EXAM/my_code_new/obj/../StdPeriphDriver/inc/CH58x_sys.h:195
   R8_SAFE_ACCESS_SIG = 0;
20000880:	04070023          	sb	zero,64(a4)
/home/flinux/Downloads/ch583-main/EVT/EXAM/my_code_new/obj/../StdPeriphDriver/inc/CH58x_sys.h:196
   write_csr(0x800, read_csr(0x800)|(IRQ_STA&0x08));
20000884:	800026f3          	csrr	a3,0x800
20000888:	4398                	lw	a4,0(a5)
2000088a:	8b21                	andi	a4,a4,8
2000088c:	8f55                	or	a4,a4,a3
2000088e:	80071073          	csrw	0x800,a4
/home/flinux/Downloads/ch583-main/EVT/EXAM/my_code_new/obj/../StdPeriphDriver/inc/CH58x_sys.h:197
   IRQ_STA = 0;
20000892:	8001a823          	sw	zero,-2032(gp) # 20000f10 <IRQ_STA>
/home/flinux/Downloads/ch583-main/EVT/EXAM/my_code_new/obj/../StdPeriphDriver/inc/CH58x_sys.h:198
   SAFEOPERATE;
20000896:	0001                	nop
20000898:	0001                	nop
SetSysClock():
/home/flinux/Downloads/ch583-main/EVT/EXAM/my_code_new/obj/../StdPeriphDriver/CH58x_sys.c:79
        if(sc == CLK_SOURCE_PLL_80MHz)
2000089a:	04600713          	li	a4,70
2000089e:	04e51063          	bne	a0,a4,200008de <SetSysClock+0x306>
sys_safe_access_enable():
/home/flinux/Downloads/ch583-main/EVT/EXAM/my_code_new/obj/../StdPeriphDriver/inc/CH58x_sys.h:182
   if(read_csr(0x800)&0x08)
200008a2:	80002773          	csrr	a4,0x800
200008a6:	8b21                	andi	a4,a4,8
200008a8:	cb09                	beqz	a4,200008ba <SetSysClock+0x2e2>
/home/flinux/Downloads/ch583-main/EVT/EXAM/my_code_new/obj/../StdPeriphDriver/inc/CH58x_sys.h:184
       IRQ_STA = read_csr(0x800);
200008aa:	80002773          	csrr	a4,0x800
200008ae:	80e1a823          	sw	a4,-2032(gp) # 20000f10 <IRQ_STA>
/home/flinux/Downloads/ch583-main/EVT/EXAM/my_code_new/obj/../StdPeriphDriver/inc/CH58x_sys.h:185
       write_csr(0x800, (IRQ_STA&(~0x08)));
200008b2:	4398                	lw	a4,0(a5)
200008b4:	9b5d                	andi	a4,a4,-9
200008b6:	80071073          	csrw	0x800,a4
/home/flinux/Downloads/ch583-main/EVT/EXAM/my_code_new/obj/../StdPeriphDriver/inc/CH58x_sys.h:187
   SAFEOPERATE;
200008ba:	0001                	nop
200008bc:	0001                	nop
/home/flinux/Downloads/ch583-main/EVT/EXAM/my_code_new/obj/../StdPeriphDriver/inc/CH58x_sys.h:188
   R8_SAFE_ACCESS_SIG = SAFE_ACCESS_SIG1;
200008be:	40001737          	lui	a4,0x40001
200008c2:	05700693          	li	a3,87
200008c6:	04d70023          	sb	a3,64(a4) # 40001040 <_eusrstack+0x1fff9040>
/home/flinux/Downloads/ch583-main/EVT/EXAM/my_code_new/obj/../StdPeriphDriver/inc/CH58x_sys.h:189
   R8_SAFE_ACCESS_SIG = SAFE_ACCESS_SIG2;
200008ca:	fa800693          	li	a3,-88
200008ce:	04d70023          	sb	a3,64(a4)
/home/flinux/Downloads/ch583-main/EVT/EXAM/my_code_new/obj/../StdPeriphDriver/inc/CH58x_sys.h:190
   SAFEOPERATE;
200008d2:	0001                	nop
200008d4:	0001                	nop
SetSysClock():
/home/flinux/Downloads/ch583-main/EVT/EXAM/my_code_new/obj/../StdPeriphDriver/CH58x_sys.c:82
            R8_FLASH_CFG = 0X02;
200008d6:	400026b7          	lui	a3,0x40002
200008da:	4609                	li	a2,2
200008dc:	b5b5                	j	20000748 <SetSysClock+0x170>
sys_safe_access_enable():
/home/flinux/Downloads/ch583-main/EVT/EXAM/my_code_new/obj/../StdPeriphDriver/inc/CH58x_sys.h:182
   if(read_csr(0x800)&0x08)
200008de:	80002773          	csrr	a4,0x800
200008e2:	8b21                	andi	a4,a4,8
200008e4:	cb09                	beqz	a4,200008f6 <SetSysClock+0x31e>
/home/flinux/Downloads/ch583-main/EVT/EXAM/my_code_new/obj/../StdPeriphDriver/inc/CH58x_sys.h:184
       IRQ_STA = read_csr(0x800);
200008e6:	80002773          	csrr	a4,0x800
200008ea:	80e1a823          	sw	a4,-2032(gp) # 20000f10 <IRQ_STA>
/home/flinux/Downloads/ch583-main/EVT/EXAM/my_code_new/obj/../StdPeriphDriver/inc/CH58x_sys.h:185
       write_csr(0x800, (IRQ_STA&(~0x08)));
200008ee:	4398                	lw	a4,0(a5)
200008f0:	9b5d                	andi	a4,a4,-9
200008f2:	80071073          	csrw	0x800,a4
/home/flinux/Downloads/ch583-main/EVT/EXAM/my_code_new/obj/../StdPeriphDriver/inc/CH58x_sys.h:187
   SAFEOPERATE;
200008f6:	0001                	nop
200008f8:	0001                	nop
/home/flinux/Downloads/ch583-main/EVT/EXAM/my_code_new/obj/../StdPeriphDriver/inc/CH58x_sys.h:188
   R8_SAFE_ACCESS_SIG = SAFE_ACCESS_SIG1;
200008fa:	40001737          	lui	a4,0x40001
200008fe:	05700693          	li	a3,87
20000902:	04d70023          	sb	a3,64(a4) # 40001040 <_eusrstack+0x1fff9040>
/home/flinux/Downloads/ch583-main/EVT/EXAM/my_code_new/obj/../StdPeriphDriver/inc/CH58x_sys.h:189
   R8_SAFE_ACCESS_SIG = SAFE_ACCESS_SIG2;
20000906:	fa800693          	li	a3,-88
2000090a:	04d70023          	sb	a3,64(a4)
/home/flinux/Downloads/ch583-main/EVT/EXAM/my_code_new/obj/../StdPeriphDriver/inc/CH58x_sys.h:190
   SAFEOPERATE;
2000090e:	0001                	nop
20000910:	0001                	nop
SetSysClock():
/home/flinux/Downloads/ch583-main/EVT/EXAM/my_code_new/obj/../StdPeriphDriver/CH58x_sys.c:88
            R8_FLASH_CFG = 0X52;
20000912:	400026b7          	lui	a3,0x40002
20000916:	05200613          	li	a2,82
2000091a:	b53d                	j	20000748 <SetSysClock+0x170>
sys_safe_access_enable():
/home/flinux/Downloads/ch583-main/EVT/EXAM/my_code_new/obj/../StdPeriphDriver/inc/CH58x_sys.h:182
   if(read_csr(0x800)&0x08)
2000091c:	80002773          	csrr	a4,0x800
20000920:	8b21                	andi	a4,a4,8
20000922:	cb09                	beqz	a4,20000934 <SetSysClock+0x35c>
/home/flinux/Downloads/ch583-main/EVT/EXAM/my_code_new/obj/../StdPeriphDriver/inc/CH58x_sys.h:184
       IRQ_STA = read_csr(0x800);
20000924:	80002773          	csrr	a4,0x800
20000928:	80e1a823          	sw	a4,-2032(gp) # 20000f10 <IRQ_STA>
/home/flinux/Downloads/ch583-main/EVT/EXAM/my_code_new/obj/../StdPeriphDriver/inc/CH58x_sys.h:185
       write_csr(0x800, (IRQ_STA&(~0x08)));
2000092c:	4398                	lw	a4,0(a5)
2000092e:	9b5d                	andi	a4,a4,-9
20000930:	80071073          	csrw	0x800,a4
/home/flinux/Downloads/ch583-main/EVT/EXAM/my_code_new/obj/../StdPeriphDriver/inc/CH58x_sys.h:187
   SAFEOPERATE;
20000934:	0001                	nop
20000936:	0001                	nop
/home/flinux/Downloads/ch583-main/EVT/EXAM/my_code_new/obj/../StdPeriphDriver/inc/CH58x_sys.h:188
   R8_SAFE_ACCESS_SIG = SAFE_ACCESS_SIG1;
20000938:	40001737          	lui	a4,0x40001
2000093c:	05700693          	li	a3,87
20000940:	04d70023          	sb	a3,64(a4) # 40001040 <_eusrstack+0x1fff9040>
/home/flinux/Downloads/ch583-main/EVT/EXAM/my_code_new/obj/../StdPeriphDriver/inc/CH58x_sys.h:189
   R8_SAFE_ACCESS_SIG = SAFE_ACCESS_SIG2;
20000944:	fa800693          	li	a3,-88
20000948:	04d70023          	sb	a3,64(a4)
/home/flinux/Downloads/ch583-main/EVT/EXAM/my_code_new/obj/../StdPeriphDriver/inc/CH58x_sys.h:190
   SAFEOPERATE;
2000094c:	0001                	nop
2000094e:	0001                	nop
SetSysClock():
/home/flinux/Downloads/ch583-main/EVT/EXAM/my_code_new/obj/../StdPeriphDriver/CH58x_sys.c:95
        R16_CLK_SYS_CFG |= RB_CLK_SYS_MOD;
20000950:	00875683          	lhu	a3,8(a4)
20000954:	0c06e693          	ori	a3,a3,192
20000958:	00d71423          	sh	a3,8(a4)
2000095c:	bbc5                	j	2000074c <SetSysClock+0x174>

2000095e <SYS_ResetExecute>:
SYS_ResetExecute():
/home/flinux/Downloads/ch583-main/EVT/EXAM/my_code_new/obj/../StdPeriphDriver/CH58x_sys.c:164
 *
 * @return  none
 */
__HIGH_CODE
void SYS_ResetExecute(void)
{
2000095e:	1141                	addi	sp,sp,-16
/home/flinux/Downloads/ch583-main/EVT/EXAM/my_code_new/obj/../StdPeriphDriver/CH58x_sys.c:165
    FLASH_ROM_SW_RESET();
20000960:	4681                	li	a3,0
20000962:	4601                	li	a2,0
20000964:	4581                	li	a1,0
20000966:	4511                	li	a0,4
/home/flinux/Downloads/ch583-main/EVT/EXAM/my_code_new/obj/../StdPeriphDriver/CH58x_sys.c:164
{
20000968:	c606                	sw	ra,12(sp)
/home/flinux/Downloads/ch583-main/EVT/EXAM/my_code_new/obj/../StdPeriphDriver/CH58x_sys.c:165
    FLASH_ROM_SW_RESET();
2000096a:	2c19                	jal	20000b80 <FLASH_EEPROM_CMD>
sys_safe_access_enable():
/home/flinux/Downloads/ch583-main/EVT/EXAM/my_code_new/obj/../StdPeriphDriver/inc/CH58x_sys.h:182
   if(read_csr(0x800)&0x08)
2000096c:	800027f3          	csrr	a5,0x800
20000970:	8ba1                	andi	a5,a5,8
20000972:	81018693          	addi	a3,gp,-2032 # 20000f10 <IRQ_STA>
20000976:	cb89                	beqz	a5,20000988 <SYS_ResetExecute+0x2a>
/home/flinux/Downloads/ch583-main/EVT/EXAM/my_code_new/obj/../StdPeriphDriver/inc/CH58x_sys.h:184
       IRQ_STA = read_csr(0x800);
20000978:	800027f3          	csrr	a5,0x800
2000097c:	80f1a823          	sw	a5,-2032(gp) # 20000f10 <IRQ_STA>
/home/flinux/Downloads/ch583-main/EVT/EXAM/my_code_new/obj/../StdPeriphDriver/inc/CH58x_sys.h:185
       write_csr(0x800, (IRQ_STA&(~0x08)));
20000980:	429c                	lw	a5,0(a3)
20000982:	9bdd                	andi	a5,a5,-9
20000984:	80079073          	csrw	0x800,a5
/home/flinux/Downloads/ch583-main/EVT/EXAM/my_code_new/obj/../StdPeriphDriver/inc/CH58x_sys.h:187
   SAFEOPERATE;
20000988:	0001                	nop
2000098a:	0001                	nop
/home/flinux/Downloads/ch583-main/EVT/EXAM/my_code_new/obj/../StdPeriphDriver/inc/CH58x_sys.h:188
   R8_SAFE_ACCESS_SIG = SAFE_ACCESS_SIG1;
2000098c:	400017b7          	lui	a5,0x40001
20000990:	05700713          	li	a4,87
20000994:	04e78023          	sb	a4,64(a5) # 40001040 <_eusrstack+0x1fff9040>
/home/flinux/Downloads/ch583-main/EVT/EXAM/my_code_new/obj/../StdPeriphDriver/inc/CH58x_sys.h:189
   R8_SAFE_ACCESS_SIG = SAFE_ACCESS_SIG2;
20000998:	fa800713          	li	a4,-88
2000099c:	04e78023          	sb	a4,64(a5)
/home/flinux/Downloads/ch583-main/EVT/EXAM/my_code_new/obj/../StdPeriphDriver/inc/CH58x_sys.h:190
   SAFEOPERATE;
200009a0:	0001                	nop
200009a2:	0001                	nop
SYS_ResetExecute():
/home/flinux/Downloads/ch583-main/EVT/EXAM/my_code_new/obj/../StdPeriphDriver/CH58x_sys.c:167
    sys_safe_access_enable();
    R8_RST_WDOG_CTRL |= RB_SOFTWARE_RESET;
200009a4:	0467c703          	lbu	a4,70(a5)
200009a8:	00176713          	ori	a4,a4,1
200009ac:	04e78323          	sb	a4,70(a5)
sys_safe_access_disable():
/home/flinux/Downloads/ch583-main/EVT/EXAM/my_code_new/obj/../StdPeriphDriver/inc/CH58x_sys.h:195
   R8_SAFE_ACCESS_SIG = 0;
200009b0:	04078023          	sb	zero,64(a5)
/home/flinux/Downloads/ch583-main/EVT/EXAM/my_code_new/obj/../StdPeriphDriver/inc/CH58x_sys.h:196
   write_csr(0x800, read_csr(0x800)|(IRQ_STA&0x08));
200009b4:	80002773          	csrr	a4,0x800
200009b8:	429c                	lw	a5,0(a3)
200009ba:	8ba1                	andi	a5,a5,8
200009bc:	8fd9                	or	a5,a5,a4
200009be:	80079073          	csrw	0x800,a5
/home/flinux/Downloads/ch583-main/EVT/EXAM/my_code_new/obj/../StdPeriphDriver/inc/CH58x_sys.h:197
   IRQ_STA = 0;
200009c2:	8001a823          	sw	zero,-2032(gp) # 20000f10 <IRQ_STA>
/home/flinux/Downloads/ch583-main/EVT/EXAM/my_code_new/obj/../StdPeriphDriver/inc/CH58x_sys.h:198
   SAFEOPERATE;
200009c6:	0001                	nop
200009c8:	0001                	nop
SYS_ResetExecute():
/home/flinux/Downloads/ch583-main/EVT/EXAM/my_code_new/obj/../StdPeriphDriver/CH58x_sys.c:169
    sys_safe_access_disable();
}
200009ca:	40b2                	lw	ra,12(sp)
200009cc:	0141                	addi	sp,sp,16
200009ce:	8082                	ret

200009d0 <HardFault_Handler>:
HardFault_Handler():
/home/flinux/Downloads/ch583-main/EVT/EXAM/my_code_new/obj/../StdPeriphDriver/CH58x_sys.c:303
__INTERRUPT
__HIGH_CODE
__attribute__((weak))
void HardFault_Handler(void)
{
    FLASH_ROM_SW_RESET();
200009d0:	4681                	li	a3,0
200009d2:	4601                	li	a2,0
200009d4:	4581                	li	a1,0
200009d6:	4511                	li	a0,4
200009d8:	2265                	jal	20000b80 <FLASH_EEPROM_CMD>
sys_safe_access_enable():
/home/flinux/Downloads/ch583-main/EVT/EXAM/my_code_new/obj/../StdPeriphDriver/inc/CH58x_sys.h:182
   if(read_csr(0x800)&0x08)
200009da:	800027f3          	csrr	a5,0x800
200009de:	8ba1                	andi	a5,a5,8
200009e0:	81018713          	addi	a4,gp,-2032 # 20000f10 <IRQ_STA>
200009e4:	cb89                	beqz	a5,200009f6 <HardFault_Handler+0x26>
/home/flinux/Downloads/ch583-main/EVT/EXAM/my_code_new/obj/../StdPeriphDriver/inc/CH58x_sys.h:184
       IRQ_STA = read_csr(0x800);
200009e6:	800027f3          	csrr	a5,0x800
200009ea:	80f1a823          	sw	a5,-2032(gp) # 20000f10 <IRQ_STA>
/home/flinux/Downloads/ch583-main/EVT/EXAM/my_code_new/obj/../StdPeriphDriver/inc/CH58x_sys.h:185
       write_csr(0x800, (IRQ_STA&(~0x08)));
200009ee:	431c                	lw	a5,0(a4)
200009f0:	9bdd                	andi	a5,a5,-9
200009f2:	80079073          	csrw	0x800,a5
/home/flinux/Downloads/ch583-main/EVT/EXAM/my_code_new/obj/../StdPeriphDriver/inc/CH58x_sys.h:187
   SAFEOPERATE;
200009f6:	0001                	nop
200009f8:	0001                	nop
/home/flinux/Downloads/ch583-main/EVT/EXAM/my_code_new/obj/../StdPeriphDriver/inc/CH58x_sys.h:188
   R8_SAFE_ACCESS_SIG = SAFE_ACCESS_SIG1;
200009fa:	400017b7          	lui	a5,0x40001
200009fe:	05700693          	li	a3,87
20000a02:	04d78023          	sb	a3,64(a5) # 40001040 <_eusrstack+0x1fff9040>
/home/flinux/Downloads/ch583-main/EVT/EXAM/my_code_new/obj/../StdPeriphDriver/inc/CH58x_sys.h:189
   R8_SAFE_ACCESS_SIG = SAFE_ACCESS_SIG2;
20000a06:	fa800693          	li	a3,-88
20000a0a:	04d78023          	sb	a3,64(a5)
/home/flinux/Downloads/ch583-main/EVT/EXAM/my_code_new/obj/../StdPeriphDriver/inc/CH58x_sys.h:190
   SAFEOPERATE;
20000a0e:	0001                	nop
20000a10:	0001                	nop
HardFault_Handler():
/home/flinux/Downloads/ch583-main/EVT/EXAM/my_code_new/obj/../StdPeriphDriver/CH58x_sys.c:305
    sys_safe_access_enable();
    R16_INT32K_TUNE = 0xFFFF;
20000a12:	56fd                	li	a3,-1
20000a14:	02d79623          	sh	a3,44(a5)
sys_safe_access_disable():
/home/flinux/Downloads/ch583-main/EVT/EXAM/my_code_new/obj/../StdPeriphDriver/inc/CH58x_sys.h:195
   R8_SAFE_ACCESS_SIG = 0;
20000a18:	04078023          	sb	zero,64(a5)
/home/flinux/Downloads/ch583-main/EVT/EXAM/my_code_new/obj/../StdPeriphDriver/inc/CH58x_sys.h:196
   write_csr(0x800, read_csr(0x800)|(IRQ_STA&0x08));
20000a1c:	800026f3          	csrr	a3,0x800
20000a20:	431c                	lw	a5,0(a4)
20000a22:	8ba1                	andi	a5,a5,8
20000a24:	8fd5                	or	a5,a5,a3
20000a26:	80079073          	csrw	0x800,a5
/home/flinux/Downloads/ch583-main/EVT/EXAM/my_code_new/obj/../StdPeriphDriver/inc/CH58x_sys.h:197
   IRQ_STA = 0;
20000a2a:	8001a823          	sw	zero,-2032(gp) # 20000f10 <IRQ_STA>
/home/flinux/Downloads/ch583-main/EVT/EXAM/my_code_new/obj/../StdPeriphDriver/inc/CH58x_sys.h:198
   SAFEOPERATE;
20000a2e:	0001                	nop
20000a30:	0001                	nop
sys_safe_access_enable():
/home/flinux/Downloads/ch583-main/EVT/EXAM/my_code_new/obj/../StdPeriphDriver/inc/CH58x_sys.h:182
   if(read_csr(0x800)&0x08)
20000a32:	800027f3          	csrr	a5,0x800
20000a36:	8ba1                	andi	a5,a5,8
20000a38:	cb89                	beqz	a5,20000a4a <HardFault_Handler+0x7a>
/home/flinux/Downloads/ch583-main/EVT/EXAM/my_code_new/obj/../StdPeriphDriver/inc/CH58x_sys.h:184
       IRQ_STA = read_csr(0x800);
20000a3a:	800027f3          	csrr	a5,0x800
20000a3e:	80f1a823          	sw	a5,-2032(gp) # 20000f10 <IRQ_STA>
/home/flinux/Downloads/ch583-main/EVT/EXAM/my_code_new/obj/../StdPeriphDriver/inc/CH58x_sys.h:185
       write_csr(0x800, (IRQ_STA&(~0x08)));
20000a42:	431c                	lw	a5,0(a4)
20000a44:	9bdd                	andi	a5,a5,-9
20000a46:	80079073          	csrw	0x800,a5
/home/flinux/Downloads/ch583-main/EVT/EXAM/my_code_new/obj/../StdPeriphDriver/inc/CH58x_sys.h:187
   SAFEOPERATE;
20000a4a:	0001                	nop
20000a4c:	0001                	nop
/home/flinux/Downloads/ch583-main/EVT/EXAM/my_code_new/obj/../StdPeriphDriver/inc/CH58x_sys.h:188
   R8_SAFE_ACCESS_SIG = SAFE_ACCESS_SIG1;
20000a4e:	400017b7          	lui	a5,0x40001
20000a52:	05700693          	li	a3,87
20000a56:	04d78023          	sb	a3,64(a5) # 40001040 <_eusrstack+0x1fff9040>
/home/flinux/Downloads/ch583-main/EVT/EXAM/my_code_new/obj/../StdPeriphDriver/inc/CH58x_sys.h:189
   R8_SAFE_ACCESS_SIG = SAFE_ACCESS_SIG2;
20000a5a:	fa800693          	li	a3,-88
20000a5e:	04d78023          	sb	a3,64(a5)
/home/flinux/Downloads/ch583-main/EVT/EXAM/my_code_new/obj/../StdPeriphDriver/inc/CH58x_sys.h:190
   SAFEOPERATE;
20000a62:	0001                	nop
20000a64:	0001                	nop
HardFault_Handler():
/home/flinux/Downloads/ch583-main/EVT/EXAM/my_code_new/obj/../StdPeriphDriver/CH58x_sys.c:308
	sys_safe_access_disable();
    sys_safe_access_enable();
    R8_RST_WDOG_CTRL |= RB_SOFTWARE_RESET;
20000a66:	0467c683          	lbu	a3,70(a5)
20000a6a:	0016e693          	ori	a3,a3,1
20000a6e:	04d78323          	sb	a3,70(a5)
sys_safe_access_disable():
/home/flinux/Downloads/ch583-main/EVT/EXAM/my_code_new/obj/../StdPeriphDriver/inc/CH58x_sys.h:195
   R8_SAFE_ACCESS_SIG = 0;
20000a72:	04078023          	sb	zero,64(a5)
/home/flinux/Downloads/ch583-main/EVT/EXAM/my_code_new/obj/../StdPeriphDriver/inc/CH58x_sys.h:196
   write_csr(0x800, read_csr(0x800)|(IRQ_STA&0x08));
20000a76:	800026f3          	csrr	a3,0x800
20000a7a:	431c                	lw	a5,0(a4)
20000a7c:	8ba1                	andi	a5,a5,8
20000a7e:	8fd5                	or	a5,a5,a3
20000a80:	80079073          	csrw	0x800,a5
/home/flinux/Downloads/ch583-main/EVT/EXAM/my_code_new/obj/../StdPeriphDriver/inc/CH58x_sys.h:197
   IRQ_STA = 0;
20000a84:	8001a823          	sw	zero,-2032(gp) # 20000f10 <IRQ_STA>
/home/flinux/Downloads/ch583-main/EVT/EXAM/my_code_new/obj/../StdPeriphDriver/inc/CH58x_sys.h:198
   SAFEOPERATE;
20000a88:	0001                	nop
20000a8a:	0001                	nop
HardFault_Handler():
/home/flinux/Downloads/ch583-main/EVT/EXAM/my_code_new/obj/../StdPeriphDriver/CH58x_sys.c:310 (discriminator 1)
    sys_safe_access_disable();
    while(1);
20000a8c:	a001                	j	20000a8c <HardFault_Handler+0xbc>

20000a8e <mDelayuS>:
mDelayuS():
/home/flinux/Downloads/ch583-main/EVT/EXAM/my_code_new/obj/../StdPeriphDriver/CH58x_sys.c:329
{
    uint32_t i;
#if(FREQ_SYS == 80000000)
    i = t * 20;
#elif(FREQ_SYS == 60000000)
    i = t * 15;
20000a8e:	47bd                	li	a5,15
20000a90:	02f50533          	mul	a0,a0,a5
/home/flinux/Downloads/ch583-main/EVT/EXAM/my_code_new/obj/../StdPeriphDriver/CH58x_sys.c:353 (discriminator 1)
#else
    i = t << 1;
#endif
    do
    {
        __nop();
20000a94:	0001                	nop
/home/flinux/Downloads/ch583-main/EVT/EXAM/my_code_new/obj/../StdPeriphDriver/CH58x_sys.c:354 (discriminator 1)
    } while(--i);
20000a96:	157d                	addi	a0,a0,-1
20000a98:	fd75                	bnez	a0,20000a94 <mDelayuS+0x6>
/home/flinux/Downloads/ch583-main/EVT/EXAM/my_code_new/obj/../StdPeriphDriver/CH58x_sys.c:355
}
20000a9a:	8082                	ret

20000a9c <mDelaymS>:
mDelaymS():
/home/flinux/Downloads/ch583-main/EVT/EXAM/my_code_new/obj/../StdPeriphDriver/CH58x_sys.c:368
 *
 * @return  none
 */
__HIGH_CODE
void mDelaymS(uint16_t t)
{
20000a9c:	1141                	addi	sp,sp,-16
20000a9e:	c422                	sw	s0,8(sp)
20000aa0:	c226                	sw	s1,4(sp)
20000aa2:	c606                	sw	ra,12(sp)
20000aa4:	84aa                	mv	s1,a0
/home/flinux/Downloads/ch583-main/EVT/EXAM/my_code_new/obj/../StdPeriphDriver/CH58x_sys.c:371
    uint16_t i;

    for(i = 0; i < t; i++)
20000aa6:	4401                	li	s0,0
/home/flinux/Downloads/ch583-main/EVT/EXAM/my_code_new/obj/../StdPeriphDriver/CH58x_sys.c:371 (discriminator 1)
20000aa8:	00941763          	bne	s0,s1,20000ab6 <mDelaymS+0x1a>
/home/flinux/Downloads/ch583-main/EVT/EXAM/my_code_new/obj/../StdPeriphDriver/CH58x_sys.c:375
    {
        mDelayuS(1000);
    }
}
20000aac:	40b2                	lw	ra,12(sp)
20000aae:	4422                	lw	s0,8(sp)
20000ab0:	4492                	lw	s1,4(sp)
20000ab2:	0141                	addi	sp,sp,16
20000ab4:	8082                	ret
/home/flinux/Downloads/ch583-main/EVT/EXAM/my_code_new/obj/../StdPeriphDriver/CH58x_sys.c:371 (discriminator 3)
    for(i = 0; i < t; i++)
20000ab6:	0405                	addi	s0,s0,1
/home/flinux/Downloads/ch583-main/EVT/EXAM/my_code_new/obj/../StdPeriphDriver/CH58x_sys.c:373 (discriminator 3)
        mDelayuS(1000);
20000ab8:	3e800513          	li	a0,1000
/home/flinux/Downloads/ch583-main/EVT/EXAM/my_code_new/obj/../StdPeriphDriver/CH58x_sys.c:371 (discriminator 3)
    for(i = 0; i < t; i++)
20000abc:	0442                	slli	s0,s0,0x10
/home/flinux/Downloads/ch583-main/EVT/EXAM/my_code_new/obj/../StdPeriphDriver/CH58x_sys.c:373 (discriminator 3)
        mDelayuS(1000);
20000abe:	3fc1                	jal	20000a8e <mDelayuS>
/home/flinux/Downloads/ch583-main/EVT/EXAM/my_code_new/obj/../StdPeriphDriver/CH58x_sys.c:371 (discriminator 3)
    for(i = 0; i < t; i++)
20000ac0:	8041                	srli	s0,s0,0x10
20000ac2:	b7dd                	j	20000aa8 <mDelaymS+0xc>

20000ac4 <FLASH_ROM_BEG>:
FLASH_ROM_BEG():
20000ac4:	80040323          	sb	zero,-2042(s0)
20000ac8:	4715                	li	a4,5
20000aca:	80e40323          	sb	a4,-2042(s0)
20000ace:	0001                	nop
20000ad0:	80a40223          	sb	a0,-2044(s0)
20000ad4:	8082                	ret

20000ad6 <FLASH_ROM_END>:
FLASH_ROM_END():
20000ad6:	80640783          	lb	a5,-2042(s0)
20000ada:	fe07cee3          	bltz	a5,20000ad6 <FLASH_ROM_END>
20000ade:	80040323          	sb	zero,-2042(s0)
20000ae2:	8082                	ret

20000ae4 <FLASH_ROM_IN>:
FLASH_ROM_IN():
20000ae4:	80640783          	lb	a5,-2042(s0)
20000ae8:	fe07cee3          	bltz	a5,20000ae4 <FLASH_ROM_IN>
20000aec:	80444503          	lbu	a0,-2044(s0)
20000af0:	8082                	ret

20000af2 <FLASH_ROM_OUT>:
FLASH_ROM_OUT():
20000af2:	80640783          	lb	a5,-2042(s0)
20000af6:	fe07cee3          	bltz	a5,20000af2 <FLASH_ROM_OUT>
20000afa:	80a40223          	sb	a0,-2044(s0)
20000afe:	8082                	ret

20000b00 <FLASH_ROM_ADDR>:
FLASH_ROM_ADDR():
20000b00:	1141                	addi	sp,sp,-16
20000b02:	c426                	sw	s1,8(sp)
20000b04:	c24a                	sw	s2,4(sp)
20000b06:	c04e                	sw	s3,0(sp)
20000b08:	c606                	sw	ra,12(sp)
20000b0a:	0bf57713          	andi	a4,a0,191
20000b0e:	47ad                	li	a5,11
20000b10:	89aa                	mv	s3,a0
20000b12:	892e                	mv	s2,a1
20000b14:	4495                	li	s1,5
20000b16:	00f70663          	beq	a4,a5,20000b22 <FLASH_ROM_ADDR+0x22>
20000b1a:	4519                	li	a0,6
20000b1c:	3765                	jal	20000ac4 <FLASH_ROM_BEG>
20000b1e:	3f65                	jal	20000ad6 <FLASH_ROM_END>
20000b20:	448d                	li	s1,3
20000b22:	854e                	mv	a0,s3
20000b24:	3745                	jal	20000ac4 <FLASH_ROM_BEG>
20000b26:	59fd                	li	s3,-1
20000b28:	14fd                	addi	s1,s1,-1
20000b2a:	01349863          	bne	s1,s3,20000b3a <FLASH_ROM_ADDR+0x3a>
20000b2e:	40b2                	lw	ra,12(sp)
20000b30:	44a2                	lw	s1,8(sp)
20000b32:	4912                	lw	s2,4(sp)
20000b34:	4982                	lw	s3,0(sp)
20000b36:	0141                	addi	sp,sp,16
20000b38:	8082                	ret
20000b3a:	01095513          	srli	a0,s2,0x10
20000b3e:	0ff57513          	andi	a0,a0,255
20000b42:	3f45                	jal	20000af2 <FLASH_ROM_OUT>
20000b44:	0922                	slli	s2,s2,0x8
20000b46:	b7cd                	j	20000b28 <FLASH_ROM_ADDR+0x28>

20000b48 <FLASH_ROM_WAIT>:
FLASH_ROM_WAIT():
20000b48:	1101                	addi	sp,sp,-32
20000b4a:	cc26                	sw	s1,24(sp)
20000b4c:	ce06                	sw	ra,28(sp)
20000b4e:	000804b7          	lui	s1,0x80
20000b52:	3751                	jal	20000ad6 <FLASH_ROM_END>
20000b54:	4515                	li	a0,5
20000b56:	37bd                	jal	20000ac4 <FLASH_ROM_BEG>
20000b58:	3771                	jal	20000ae4 <FLASH_ROM_IN>
20000b5a:	3769                	jal	20000ae4 <FLASH_ROM_IN>
20000b5c:	c62a                	sw	a0,12(sp)
20000b5e:	3fa5                	jal	20000ad6 <FLASH_ROM_END>
20000b60:	4532                	lw	a0,12(sp)
20000b62:	00157793          	andi	a5,a0,1
20000b66:	eb89                	bnez	a5,20000b78 <FLASH_ROM_WAIT+0x30>
20000b68:	00156513          	ori	a0,a0,1
20000b6c:	0ff57513          	andi	a0,a0,255
20000b70:	40f2                	lw	ra,28(sp)
20000b72:	44e2                	lw	s1,24(sp)
20000b74:	6105                	addi	sp,sp,32
20000b76:	8082                	ret
20000b78:	14fd                	addi	s1,s1,-1
20000b7a:	fce9                	bnez	s1,20000b54 <FLASH_ROM_WAIT+0xc>
20000b7c:	4501                	li	a0,0
20000b7e:	bfcd                	j	20000b70 <FLASH_ROM_WAIT+0x28>

20000b80 <FLASH_EEPROM_CMD>:
FLASH_EEPROM_CMD():
20000b80:	7139                	addi	sp,sp,-64
20000b82:	dc26                	sw	s1,56(sp)
20000b84:	da4a                	sw	s2,52(sp)
20000b86:	d84e                	sw	s3,48(sp)
20000b88:	d652                	sw	s4,44(sp)
20000b8a:	d456                	sw	s5,40(sp)
20000b8c:	d25a                	sw	s6,36(sp)
20000b8e:	d05e                	sw	s7,32(sp)
20000b90:	de06                	sw	ra,60(sp)
20000b92:	ce62                	sw	s8,28(sp)
20000b94:	cc66                	sw	s9,24(sp)
20000b96:	e000e7b7          	lui	a5,0xe000e
20000b9a:	577d                	li	a4,-1
20000b9c:	0007aa83          	lw	s5,0(a5) # e000e000 <_eusrstack+0xc0006000>
20000ba0:	c622                	sw	s0,12(sp)
20000ba2:	0047aa03          	lw	s4,4(a5)
20000ba6:	18e7a023          	sw	a4,384(a5)
20000baa:	18e7a223          	sw	a4,388(a5)
20000bae:	400017b7          	lui	a5,0x40001
20000bb2:	05700713          	li	a4,87
20000bb6:	04e78023          	sb	a4,64(a5) # 40001040 <_eusrstack+0x1fff9040>
20000bba:	fa800713          	li	a4,-88
20000bbe:	04e78023          	sb	a4,64(a5)
20000bc2:	0447c783          	lbu	a5,68(a5)
20000bc6:	ff750b93          	addi	s7,a0,-9
20000bca:	84b6                	mv	s1,a3
20000bcc:	07e2                	slli	a5,a5,0x18
20000bce:	0ffbfb93          	andi	s7,s7,255
20000bd2:	4685                	li	a3,1
20000bd4:	89aa                	mv	s3,a0
20000bd6:	8b2e                	mv	s6,a1
20000bd8:	8932                	mv	s2,a2
20000bda:	40002437          	lui	s0,0x40002
20000bde:	87e1                	srai	a5,a5,0x18
20000be0:	5701                	li	a4,-32
20000be2:	0176fa63          	bgeu	a3,s7,20000bf6 <FLASH_EEPROM_CMD+0x76>
20000be6:	00d50863          	beq	a0,a3,20000bf6 <FLASH_EEPROM_CMD+0x76>
20000bea:	4689                	li	a3,2
20000bec:	02000713          	li	a4,32
20000bf0:	00d51363          	bne	a0,a3,20000bf6 <FLASH_EEPROM_CMD+0x76>
20000bf4:	5701                	li	a4,-32
20000bf6:	8fd9                	or	a5,a5,a4
20000bf8:	0ff7f793          	andi	a5,a5,255
20000bfc:	40001cb7          	lui	s9,0x40001
20000c00:	04fc8223          	sb	a5,68(s9) # 40001044 <_eusrstack+0x1fff9044>
20000c04:	4711                	li	a4,4
20000c06:	80e40323          	sb	a4,-2042(s0) # 40001806 <_eusrstack+0x1fff9806>
20000c0a:	0ff00513          	li	a0,255
20000c0e:	3d5d                	jal	20000ac4 <FLASH_ROM_BEG>
20000c10:	4c09                	li	s8,2
20000c12:	35d1                	jal	20000ad6 <FLASH_ROM_END>
20000c14:	117c6d63          	bltu	s8,s7,20000d2e <FLASH_EEPROM_CMD+0x1ae>
20000c18:	000705b7          	lui	a1,0x70
20000c1c:	95da                	add	a1,a1,s6
20000c1e:	00078737          	lui	a4,0x78
20000c22:	5579                	li	a0,-2
20000c24:	04e5f263          	bgeu	a1,a4,20000c68 <FLASH_EEPROM_CMD+0xe8>
20000c28:	009587b3          	add	a5,a1,s1
20000c2c:	02f76e63          	bltu	a4,a5,20000c68 <FLASH_EEPROM_CMD+0xe8>
20000c30:	00080b37          	lui	s6,0x80
20000c34:	47a9                	li	a5,10
20000c36:	0165eb33          	or	s6,a1,s6
20000c3a:	06f99963          	bne	s3,a5,20000cac <FLASH_EEPROM_CMD+0x12c>
20000c3e:	e489                	bnez	s1,20000c48 <FLASH_EEPROM_CMD+0xc8>
20000c40:	4481                	li	s1,0
20000c42:	3d51                	jal	20000ad6 <FLASH_ROM_END>
20000c44:	8526                	mv	a0,s1
20000c46:	a00d                	j	20000c68 <FLASH_EEPROM_CMD+0xe8>
20000c48:	85da                	mv	a1,s6
20000c4a:	4509                	li	a0,2
20000c4c:	3d55                	jal	20000b00 <FLASH_ROM_ADDR>
20000c4e:	0905                	addi	s2,s2,1
20000c50:	fff94503          	lbu	a0,-1(s2)
20000c54:	14fd                	addi	s1,s1,-1
20000c56:	0b05                	addi	s6,s6,1
20000c58:	3d69                	jal	20000af2 <FLASH_ROM_OUT>
20000c5a:	c481                	beqz	s1,20000c62 <FLASH_EEPROM_CMD+0xe2>
20000c5c:	0ffb7793          	andi	a5,s6,255
20000c60:	f7fd                	bnez	a5,20000c4e <FLASH_EEPROM_CMD+0xce>
20000c62:	35dd                	jal	20000b48 <FLASH_ROM_WAIT>
20000c64:	fd69                	bnez	a0,20000c3e <FLASH_EEPROM_CMD+0xbe>
20000c66:	557d                	li	a0,-1
20000c68:	400017b7          	lui	a5,0x40001
20000c6c:	05700713          	li	a4,87
20000c70:	04e78023          	sb	a4,64(a5) # 40001040 <_eusrstack+0x1fff9040>
20000c74:	fa800713          	li	a4,-88
20000c78:	04e78023          	sb	a4,64(a5)
20000c7c:	0447c703          	lbu	a4,68(a5)
20000c80:	8b41                	andi	a4,a4,16
20000c82:	04e78223          	sb	a4,68(a5)
20000c86:	50f2                	lw	ra,60(sp)
20000c88:	e000e7b7          	lui	a5,0xe000e
20000c8c:	1157a023          	sw	s5,256(a5) # e000e100 <_eusrstack+0xc0006100>
20000c90:	1147a223          	sw	s4,260(a5)
20000c94:	54e2                	lw	s1,56(sp)
20000c96:	4432                	lw	s0,12(sp)
20000c98:	5952                	lw	s2,52(sp)
20000c9a:	59c2                	lw	s3,48(sp)
20000c9c:	5a32                	lw	s4,44(sp)
20000c9e:	5aa2                	lw	s5,40(sp)
20000ca0:	5b12                	lw	s6,36(sp)
20000ca2:	5b82                	lw	s7,32(sp)
20000ca4:	4c72                	lw	s8,28(sp)
20000ca6:	4ce2                	lw	s9,24(sp)
20000ca8:	6121                	addi	sp,sp,64
20000caa:	8082                	ret
20000cac:	47a5                	li	a5,9
20000cae:	06f99563          	bne	s3,a5,20000d18 <FLASH_EEPROM_CMD+0x198>
20000cb2:	6985                	lui	s3,0x1
20000cb4:	0ff00913          	li	s2,255
20000cb8:	009906b3          	add	a3,s2,s1
20000cbc:	012b74b3          	and	s1,s6,s2
20000cc0:	94b6                	add	s1,s1,a3
20000cc2:	fff94913          	not	s2,s2
20000cc6:	009974b3          	and	s1,s2,s1
20000cca:	6b85                	lui	s7,0x1
20000ccc:	01697933          	and	s2,s2,s6
20000cd0:	6b41                	lui	s6,0x10
20000cd2:	fff98793          	addi	a5,s3,-1 # fff <main+0x33>
20000cd6:	0127f7b3          	and	a5,a5,s2
20000cda:	e399                	bnez	a5,20000ce0 <FLASH_EEPROM_CMD+0x160>
20000cdc:	0134fc63          	bgeu	s1,s3,20000cf4 <FLASH_EEPROM_CMD+0x174>
20000ce0:	0049d993          	srli	s3,s3,0x4
20000ce4:	47c1                	li	a5,16
20000ce6:	ff37e6e3          	bltu	a5,s3,20000cd2 <FLASH_EEPROM_CMD+0x152>
20000cea:	bf99                	j	20000c40 <FLASH_EEPROM_CMD+0xc0>
20000cec:	6905                	lui	s2,0x1
20000cee:	69c1                	lui	s3,0x10
20000cf0:	197d                	addi	s2,s2,-1
20000cf2:	b7d9                	j	20000cb8 <FLASH_EEPROM_CMD+0x138>
20000cf4:	0d800513          	li	a0,216
20000cf8:	01698863          	beq	s3,s6,20000d08 <FLASH_EEPROM_CMD+0x188>
20000cfc:	02000513          	li	a0,32
20000d00:	01798463          	beq	s3,s7,20000d08 <FLASH_EEPROM_CMD+0x188>
20000d04:	08100513          	li	a0,129
20000d08:	85ca                	mv	a1,s2
20000d0a:	3bdd                	jal	20000b00 <FLASH_ROM_ADDR>
20000d0c:	3d35                	jal	20000b48 <FLASH_ROM_WAIT>
20000d0e:	dd21                	beqz	a0,20000c66 <FLASH_EEPROM_CMD+0xe6>
20000d10:	994e                	add	s2,s2,s3
20000d12:	413484b3          	sub	s1,s1,s3
20000d16:	b7d9                	j	20000cdc <FLASH_EEPROM_CMD+0x15c>
20000d18:	85da                	mv	a1,s6
20000d1a:	452d                	li	a0,11
20000d1c:	33d5                	jal	20000b00 <FLASH_ROM_ADDR>
20000d1e:	94ca                	add	s1,s1,s2
20000d20:	f29900e3          	beq	s2,s1,20000c40 <FLASH_EEPROM_CMD+0xc0>
20000d24:	0905                	addi	s2,s2,1
20000d26:	3b7d                	jal	20000ae4 <FLASH_ROM_IN>
20000d28:	fea90fa3          	sb	a0,-1(s2) # fff <main+0x33>
20000d2c:	bfd5                	j	20000d20 <FLASH_EEPROM_CMD+0x1a0>
20000d2e:	fff98793          	addi	a5,s3,-1 # ffff <_data_lma+0xed8b>
20000d32:	0ff7f793          	andi	a5,a5,255
20000d36:	0cfc6163          	bltu	s8,a5,20000df8 <.loop402+0x7a>
20000d3a:	041cc783          	lbu	a5,65(s9)
20000d3e:	08300713          	li	a4,131
20000d42:	04f71f63          	bne	a4,a5,20000da0 <.loop402+0x22>
20000d46:	00080737          	lui	a4,0x80
20000d4a:	04eb6b63          	bltu	s6,a4,20000da0 <.loop402+0x22>
20000d4e:	009b07b3          	add	a5,s6,s1
20000d52:	001006b7          	lui	a3,0x100
20000d56:	04d7f563          	bgeu	a5,a3,20000da0 <.loop402+0x22>
20000d5a:	00eb4b33          	xor	s6,s6,a4
20000d5e:	4789                	li	a5,2
20000d60:	06f99363          	bne	s3,a5,20000dc6 <.loop402+0x48>
20000d64:	8089                	srli	s1,s1,0x2
20000d66:	49d5                	li	s3,21
20000d68:	ec048ce3          	beqz	s1,20000c40 <FLASH_EEPROM_CMD+0xc0>
20000d6c:	85da                	mv	a1,s6
20000d6e:	4509                	li	a0,2
20000d70:	3b41                	jal	20000b00 <FLASH_ROM_ADDR>
20000d72:	0911                	addi	s2,s2,4
20000d74:	ffc92703          	lw	a4,-4(s2)
20000d78:	4791                	li	a5,4
20000d7a:	80e42023          	sw	a4,-2048(s0)

20000d7e <.loop402>:
20000d7e:	80640703          	lb	a4,-2042(s0)
20000d82:	fe074ee3          	bltz	a4,20000d7e <.loop402>
20000d86:	81340323          	sb	s3,-2042(s0)
20000d8a:	17fd                	addi	a5,a5,-1
20000d8c:	fbed                	bnez	a5,20000d7e <.loop402>
20000d8e:	14fd                	addi	s1,s1,-1
20000d90:	0b11                	addi	s6,s6,4
20000d92:	c481                	beqz	s1,20000d9a <.loop402+0x1c>
20000d94:	0ffb7793          	andi	a5,s6,255
20000d98:	ffe9                	bnez	a5,20000d72 <FLASH_EEPROM_CMD+0x1f2>
20000d9a:	337d                	jal	20000b48 <FLASH_ROM_WAIT>
20000d9c:	f571                	bnez	a0,20000d68 <FLASH_EEPROM_CMD+0x1e8>
20000d9e:	b5e1                	j	20000c66 <FLASH_EEPROM_CMD+0xe6>
20000da0:	400017b7          	lui	a5,0x40001
20000da4:	0457c703          	lbu	a4,69(a5) # 40001045 <_eusrstack+0x1fff9045>
20000da8:	000807b7          	lui	a5,0x80
20000dac:	02077713          	andi	a4,a4,32
20000db0:	e319                	bnez	a4,20000db6 <.loop402+0x38>
20000db2:	000787b7          	lui	a5,0x78
20000db6:	5579                	li	a0,-2
20000db8:	eafb78e3          	bgeu	s6,a5,20000c68 <FLASH_EEPROM_CMD+0xe8>
20000dbc:	009b0733          	add	a4,s6,s1
20000dc0:	f8e7ffe3          	bgeu	a5,a4,20000d5e <FLASH_EEPROM_CMD+0x1de>
20000dc4:	b555                	j	20000c68 <FLASH_EEPROM_CMD+0xe8>
20000dc6:	4785                	li	a5,1
20000dc8:	f2f982e3          	beq	s3,a5,20000cec <FLASH_EEPROM_CMD+0x16c>
20000dcc:	85da                	mv	a1,s6
20000dce:	452d                	li	a0,11
20000dd0:	3b05                	jal	20000b00 <FLASH_ROM_ADDR>
20000dd2:	fff48993          	addi	s3,s1,-1 # 7ffff <_data_lma+0x7ed8b>
20000dd6:	e60485e3          	beqz	s1,20000c40 <FLASH_EEPROM_CMD+0xc0>
20000dda:	3329                	jal	20000ae4 <FLASH_ROM_IN>
20000ddc:	0039f793          	andi	a5,s3,3
20000de0:	eb91                	bnez	a5,20000df4 <.loop402+0x76>
20000de2:	80042683          	lw	a3,-2048(s0)
20000de6:	00092703          	lw	a4,0(s2)
20000dea:	00490793          	addi	a5,s2,4
20000dee:	e4e69ae3          	bne	a3,a4,20000c42 <FLASH_EEPROM_CMD+0xc2>
20000df2:	893e                	mv	s2,a5
20000df4:	84ce                	mv	s1,s3
20000df6:	bff1                	j	20000dd2 <.loop402+0x54>
20000df8:	47b5                	li	a5,13
20000dfa:	00f99663          	bne	s3,a5,20000e06 <.loop402+0x88>
20000dfe:	0b900513          	li	a0,185
20000e02:	31c9                	jal	20000ac4 <FLASH_ROM_BEG>
20000e04:	bd35                	j	20000c40 <FLASH_EEPROM_CMD+0xc0>
20000e06:	47b1                	li	a5,12
20000e08:	0ab00513          	li	a0,171
20000e0c:	fef98be3          	beq	s3,a5,20000e02 <.loop402+0x84>
20000e10:	4799                	li	a5,6
20000e12:	04f99163          	bne	s3,a5,20000e54 <.loop402+0xd6>
20000e16:	000805b7          	lui	a1,0x80
20000e1a:	00bb65b3          	or	a1,s6,a1
20000e1e:	452d                	li	a0,11
20000e20:	31c5                	jal	20000b00 <FLASH_ROM_ADDR>
20000e22:	4481                	li	s1,0
20000e24:	4b8d                	li	s7,3
20000e26:	49a1                	li	s3,8
20000e28:	3975                	jal	20000ae4 <FLASH_ROM_IN>
20000e2a:	01749663          	bne	s1,s7,20000e36 <.loop402+0xb8>
20000e2e:	80042783          	lw	a5,-2048(s0)
20000e32:	00f92023          	sw	a5,0(s2)
20000e36:	0485                	addi	s1,s1,1
20000e38:	ff3498e3          	bne	s1,s3,20000e28 <.loop402+0xaa>
20000e3c:	80042783          	lw	a5,-2048(s0)
20000e40:	012b1713          	slli	a4,s6,0x12
20000e44:	00075563          	bgez	a4,20000e4e <.loop402+0xd0>
20000e48:	00f91223          	sh	a5,4(s2)
20000e4c:	bbd5                	j	20000c40 <FLASH_EEPROM_CMD+0xc0>
20000e4e:	00f92223          	sw	a5,4(s2)
20000e52:	b3fd                	j	20000c40 <FLASH_EEPROM_CMD+0xc0>
20000e54:	479d                	li	a5,7
20000e56:	02f99963          	bne	s3,a5,20000e88 <.loop402+0x10a>
20000e5a:	4581                	li	a1,0
20000e5c:	04b00513          	li	a0,75
20000e60:	3145                	jal	20000b00 <FLASH_ROM_ADDR>
20000e62:	44bd                	li	s1,15
20000e64:	00092023          	sw	zero,0(s2)
20000e68:	00092223          	sw	zero,4(s2)
20000e6c:	59fd                	li	s3,-1
20000e6e:	399d                	jal	20000ae4 <FLASH_ROM_IN>
20000e70:	0074f793          	andi	a5,s1,7
20000e74:	97ca                	add	a5,a5,s2
20000e76:	0007c703          	lbu	a4,0(a5) # 78000 <_data_lma+0x76d8c>
20000e7a:	14fd                	addi	s1,s1,-1
20000e7c:	8d39                	xor	a0,a0,a4
20000e7e:	00a78023          	sb	a0,0(a5)
20000e82:	ff3496e3          	bne	s1,s3,20000e6e <.loop402+0xf0>
20000e86:	bb6d                	j	20000c40 <FLASH_EEPROM_CMD+0xc0>
20000e88:	47a1                	li	a5,8
20000e8a:	04f99263          	bne	s3,a5,20000ece <.loop402+0x150>
20000e8e:	396d                	jal	20000b48 <FLASH_ROM_WAIT>
20000e90:	4481                	li	s1,0
20000e92:	000b0d63          	beqz	s6,20000eac <.loop402+0x12e>
20000e96:	478d                	li	a5,3
20000e98:	03c00493          	li	s1,60
20000e9c:	00fb0863          	beq	s6,a5,20000eac <.loop402+0x12e>
20000ea0:	05000493          	li	s1,80
20000ea4:	018b0463          	beq	s6,s8,20000eac <.loop402+0x12e>
20000ea8:	04400493          	li	s1,68
20000eac:	07c57513          	andi	a0,a0,124
20000eb0:	d89508e3          	beq	a0,s1,20000c40 <FLASH_EEPROM_CMD+0xc0>
20000eb4:	4519                	li	a0,6
20000eb6:	3139                	jal	20000ac4 <FLASH_ROM_BEG>
20000eb8:	3939                	jal	20000ad6 <FLASH_ROM_END>
20000eba:	4505                	li	a0,1
20000ebc:	3121                	jal	20000ac4 <FLASH_ROM_BEG>
20000ebe:	8526                	mv	a0,s1
20000ec0:	390d                	jal	20000af2 <FLASH_ROM_OUT>
20000ec2:	4509                	li	a0,2
20000ec4:	313d                	jal	20000af2 <FLASH_ROM_OUT>
20000ec6:	3149                	jal	20000b48 <FLASH_ROM_WAIT>
20000ec8:	d6051ce3          	bnez	a0,20000c40 <FLASH_EEPROM_CMD+0xc0>
20000ecc:	bb69                	j	20000c66 <FLASH_EEPROM_CMD+0xe6>
20000ece:	4791                	li	a5,4
20000ed0:	00f99963          	bne	s3,a5,20000ee2 <.loop402+0x164>
20000ed4:	06600513          	li	a0,102
20000ed8:	36f5                	jal	20000ac4 <FLASH_ROM_BEG>
20000eda:	3ef5                	jal	20000ad6 <FLASH_ROM_END>
20000edc:	09900513          	li	a0,153
20000ee0:	b70d                	j	20000e02 <.loop402+0x84>
20000ee2:	d4098fe3          	beqz	s3,20000c40 <FLASH_EEPROM_CMD+0xc0>
20000ee6:	54f1                	li	s1,-4
20000ee8:	bba9                	j	20000c42 <FLASH_EEPROM_CMD+0xc2>
	...

Disassembly of section .text:

00000ef0 <handle_reset>:
handle_reset():
/home/flinux/Downloads/ch583-main/EVT/EXAM/my_code_new/obj/../Startup/startup_CH583.S:129
	.weak	handle_reset
	.align	1
handle_reset:
.option push 
.option	norelax 
	la gp, __global_pointer$
     ef0:	20001197          	auipc	gp,0x20001
     ef4:	81018193          	addi	gp,gp,-2032 # 20001700 <__global_pointer$>
/home/flinux/Downloads/ch583-main/EVT/EXAM/my_code_new/obj/../Startup/startup_CH583.S:132
.option	pop 
1:
	la sp, _eusrstack 
     ef8:	20007117          	auipc	sp,0x20007
     efc:	10810113          	addi	sp,sp,264 # 20008000 <_eusrstack>
/home/flinux/Downloads/ch583-main/EVT/EXAM/my_code_new/obj/../Startup/startup_CH583.S:136

/* Load highcode code  section from flash to RAM */
2:
    la a0, _highcode_lma
     f00:	00400513          	li	a0,4
/home/flinux/Downloads/ch583-main/EVT/EXAM/my_code_new/obj/../Startup/startup_CH583.S:137
    la a1, _highcode_vma_start
     f04:	1ffff597          	auipc	a1,0x1ffff
     f08:	0fc58593          	addi	a1,a1,252 # 20000000 <_highcode_vma_start>
/home/flinux/Downloads/ch583-main/EVT/EXAM/my_code_new/obj/../Startup/startup_CH583.S:138
    la a2, _highcode_vma_end
     f0c:	20000617          	auipc	a2,0x20000
     f10:	fe060613          	addi	a2,a2,-32 # 20000eec <_highcode_vma_end>
/home/flinux/Downloads/ch583-main/EVT/EXAM/my_code_new/obj/../Startup/startup_CH583.S:139
    bgeu a1, a2, 2f
     f14:	00c5fa63          	bgeu	a1,a2,f28 <handle_reset+0x38>
/home/flinux/Downloads/ch583-main/EVT/EXAM/my_code_new/obj/../Startup/startup_CH583.S:141
1:
    lw t0, (a0)
     f18:	00052283          	lw	t0,0(a0)
/home/flinux/Downloads/ch583-main/EVT/EXAM/my_code_new/obj/../Startup/startup_CH583.S:142
    sw t0, (a1)
     f1c:	0055a023          	sw	t0,0(a1)
/home/flinux/Downloads/ch583-main/EVT/EXAM/my_code_new/obj/../Startup/startup_CH583.S:143
    addi a0, a0, 4
     f20:	0511                	addi	a0,a0,4
/home/flinux/Downloads/ch583-main/EVT/EXAM/my_code_new/obj/../Startup/startup_CH583.S:144
    addi a1, a1, 4
     f22:	0591                	addi	a1,a1,4
/home/flinux/Downloads/ch583-main/EVT/EXAM/my_code_new/obj/../Startup/startup_CH583.S:145
    bltu a1, a2, 1b
     f24:	fec5eae3          	bltu	a1,a2,f18 <handle_reset+0x28>
/home/flinux/Downloads/ch583-main/EVT/EXAM/my_code_new/obj/../Startup/startup_CH583.S:149

/* Load data section from flash to RAM */
2:
	la a0, _data_lma
     f28:	00000517          	auipc	a0,0x0
     f2c:	34c50513          	addi	a0,a0,844 # 1274 <_data_lma>
/home/flinux/Downloads/ch583-main/EVT/EXAM/my_code_new/obj/../Startup/startup_CH583.S:150
	la a1, _data_vma
     f30:	20000597          	auipc	a1,0x20000
     f34:	fbc58593          	addi	a1,a1,-68 # 20000eec <_highcode_vma_end>
/home/flinux/Downloads/ch583-main/EVT/EXAM/my_code_new/obj/../Startup/startup_CH583.S:151
	la a2, _edata
     f38:	20000617          	auipc	a2,0x20000
     f3c:	fc860613          	addi	a2,a2,-56 # 20000f00 <_edata>
/home/flinux/Downloads/ch583-main/EVT/EXAM/my_code_new/obj/../Startup/startup_CH583.S:152
	bgeu a1, a2, 2f
     f40:	00c5fa63          	bgeu	a1,a2,f54 <handle_reset+0x64>
/home/flinux/Downloads/ch583-main/EVT/EXAM/my_code_new/obj/../Startup/startup_CH583.S:154
1:
	lw t0, (a0)
     f44:	00052283          	lw	t0,0(a0)
/home/flinux/Downloads/ch583-main/EVT/EXAM/my_code_new/obj/../Startup/startup_CH583.S:155
	sw t0, (a1)
     f48:	0055a023          	sw	t0,0(a1)
/home/flinux/Downloads/ch583-main/EVT/EXAM/my_code_new/obj/../Startup/startup_CH583.S:156
	addi a0, a0, 4
     f4c:	0511                	addi	a0,a0,4
/home/flinux/Downloads/ch583-main/EVT/EXAM/my_code_new/obj/../Startup/startup_CH583.S:157
	addi a1, a1, 4
     f4e:	0591                	addi	a1,a1,4
/home/flinux/Downloads/ch583-main/EVT/EXAM/my_code_new/obj/../Startup/startup_CH583.S:158
	bltu a1, a2, 1b
     f50:	fec5eae3          	bltu	a1,a2,f44 <handle_reset+0x54>
/home/flinux/Downloads/ch583-main/EVT/EXAM/my_code_new/obj/../Startup/startup_CH583.S:161
2:
	/* clear bss section */
	la a0, _sbss
     f54:	20000517          	auipc	a0,0x20000
     f58:	fac50513          	addi	a0,a0,-84 # 20000f00 <_edata>
/home/flinux/Downloads/ch583-main/EVT/EXAM/my_code_new/obj/../Startup/startup_CH583.S:162
	la a1, _ebss
     f5c:	8d818593          	addi	a1,gp,-1832 # 20000fd8 <_ebss>
/home/flinux/Downloads/ch583-main/EVT/EXAM/my_code_new/obj/../Startup/startup_CH583.S:163
	bgeu a0, a1, 2f
     f60:	00b57763          	bgeu	a0,a1,f6e <handle_reset+0x7e>
/home/flinux/Downloads/ch583-main/EVT/EXAM/my_code_new/obj/../Startup/startup_CH583.S:165
1:
	sw zero, (a0)
     f64:	00052023          	sw	zero,0(a0)
/home/flinux/Downloads/ch583-main/EVT/EXAM/my_code_new/obj/../Startup/startup_CH583.S:166
	addi a0, a0, 4
     f68:	0511                	addi	a0,a0,4
/home/flinux/Downloads/ch583-main/EVT/EXAM/my_code_new/obj/../Startup/startup_CH583.S:167
	bltu a0, a1, 1b
     f6a:	feb56de3          	bltu	a0,a1,f64 <handle_reset+0x74>
/home/flinux/Downloads/ch583-main/EVT/EXAM/my_code_new/obj/../Startup/startup_CH583.S:170
2:
	/*  &  */
	li t0, 0x1f
     f6e:	42fd                	li	t0,31
/home/flinux/Downloads/ch583-main/EVT/EXAM/my_code_new/obj/../Startup/startup_CH583.S:171
	csrw 0xbc0, t0
     f70:	bc029073          	csrw	0xbc0,t0
/home/flinux/Downloads/ch583-main/EVT/EXAM/my_code_new/obj/../Startup/startup_CH583.S:173
	/*  */
	li t0, 0x3
     f74:	428d                	li	t0,3
/home/flinux/Downloads/ch583-main/EVT/EXAM/my_code_new/obj/../Startup/startup_CH583.S:174
	csrw 0x804, t0
     f76:	80429073          	csrw	0x804,t0
/home/flinux/Downloads/ch583-main/EVT/EXAM/my_code_new/obj/../Startup/startup_CH583.S:176
	
    li t0, 0x88
     f7a:	08800293          	li	t0,136
/home/flinux/Downloads/ch583-main/EVT/EXAM/my_code_new/obj/../Startup/startup_CH583.S:177
    csrw mstatus, t0
     f7e:	30029073          	csrw	mstatus,t0
/home/flinux/Downloads/ch583-main/EVT/EXAM/my_code_new/obj/../Startup/startup_CH583.S:178
	la t0, _vector_base
     f82:	1ffff297          	auipc	t0,0x1ffff
     f86:	07e28293          	addi	t0,t0,126 # 20000000 <_highcode_vma_start>
/home/flinux/Downloads/ch583-main/EVT/EXAM/my_code_new/obj/../Startup/startup_CH583.S:181

	/*  */
    ori t0, t0, 3
     f8a:	0032e293          	ori	t0,t0,3
/home/flinux/Downloads/ch583-main/EVT/EXAM/my_code_new/obj/../Startup/startup_CH583.S:182
	csrw mtvec, t0
     f8e:	30529073          	csrw	mtvec,t0
/home/flinux/Downloads/ch583-main/EVT/EXAM/my_code_new/obj/../Startup/startup_CH583.S:184

	la t0, main
     f92:	00000297          	auipc	t0,0x0
     f96:	03a28293          	addi	t0,t0,58 # fcc <main>
/home/flinux/Downloads/ch583-main/EVT/EXAM/my_code_new/obj/../Startup/startup_CH583.S:185
	csrw mepc, t0
     f9a:	34129073          	csrw	mepc,t0
/home/flinux/Downloads/ch583-main/EVT/EXAM/my_code_new/obj/../Startup/startup_CH583.S:188
	
	
	mret
     f9e:	30200073          	mret

00000fa2 <print_console>:
print_console():
/home/flinux/Downloads/ch583-main/EVT/EXAM/my_code_new/obj/../src/Main.c:23
uint8_t RxBuff[100];
     fa2:	1141                	addi	sp,sp,-16
/home/flinux/Downloads/ch583-main/EVT/EXAM/my_code_new/obj/../src/Main.c:26

     fa4:	45d1                	li	a1,20
     fa6:	20000517          	auipc	a0,0x20000
     faa:	f4650513          	addi	a0,a0,-186 # 20000eec <_highcode_vma_end>
/home/flinux/Downloads/ch583-main/EVT/EXAM/my_code_new/obj/../src/Main.c:23
uint8_t RxBuff[100];
     fae:	c422                	sw	s0,8(sp)
     fb0:	c606                	sw	ra,12(sp)
/home/flinux/Downloads/ch583-main/EVT/EXAM/my_code_new/obj/../src/Main.c:32
    {
     fb2:	81418413          	addi	s0,gp,-2028 # 20000f14 <RxBuff>
/home/flinux/Downloads/ch583-main/EVT/EXAM/my_code_new/obj/../src/Main.c:26

     fb6:	2ca1                	jal	120e <UART1_SendString>
/home/flinux/Downloads/ch583-main/EVT/EXAM/my_code_new/obj/../src/Main.c:32
    {
     fb8:	81418513          	addi	a0,gp,-2028 # 20000f14 <RxBuff>
     fbc:	2cad                	jal	1236 <UART1_RecvString>
/home/flinux/Downloads/ch583-main/EVT/EXAM/my_code_new/obj/../src/Main.c:33
    	GPIOA_SetBits(GPIO_Pin_9);
     fbe:	0ff57793          	andi	a5,a0,255
     fc2:	dbfd                	beqz	a5,fb8 <print_console+0x16>
/home/flinux/Downloads/ch583-main/EVT/EXAM/my_code_new/obj/../src/Main.c:35
}
     fc4:	85be                	mv	a1,a5
     fc6:	8522                	mv	a0,s0
     fc8:	2499                	jal	120e <UART1_SendString>
     fca:	b7fd                	j	fb8 <print_console+0x16>

00000fcc <main>:
main():
/home/flinux/Downloads/ch583-main/EVT/EXAM/my_code_new/obj/../src/Main.c:68
		UART1_SendString("\r\n", strlen("\r\n"));
     fcc:	1141                	addi	sp,sp,-16
/home/flinux/Downloads/ch583-main/EVT/EXAM/my_code_new/obj/../src/Main.c:70
		GPIOB_SetBits(GPIO_Pin_8);
     fce:	04800513          	li	a0,72
/home/flinux/Downloads/ch583-main/EVT/EXAM/my_code_new/obj/../src/Main.c:68
		UART1_SendString("\r\n", strlen("\r\n"));
     fd2:	c606                	sw	ra,12(sp)
/home/flinux/Downloads/ch583-main/EVT/EXAM/my_code_new/obj/../src/Main.c:70
		GPIOB_SetBits(GPIO_Pin_8);
     fd4:	1ffff097          	auipc	ra,0x1ffff
     fd8:	604080e7          	jalr	1540(ra) # 200005d8 <SetSysClock>
/home/flinux/Downloads/ch583-main/EVT/EXAM/my_code_new/obj/../src/Main.c:71
		GPIOB_SetBits(GPIO_Pin_9);
     fdc:	40001737          	lui	a4,0x40001
     fe0:	0a872783          	lw	a5,168(a4) # 400010a8 <_eusrstack+0x1fff90a8>
/home/flinux/Downloads/ch583-main/EVT/EXAM/my_code_new/obj/../src/Main.c:72

     fe4:	4585                	li	a1,1
     fe6:	10000513          	li	a0,256
/home/flinux/Downloads/ch583-main/EVT/EXAM/my_code_new/obj/../src/Main.c:71
		GPIOB_SetBits(GPIO_Pin_9);
     fea:	2007e793          	ori	a5,a5,512
     fee:	0af72423          	sw	a5,168(a4)
/home/flinux/Downloads/ch583-main/EVT/EXAM/my_code_new/obj/../src/Main.c:72

     ff2:	2039                	jal	1000 <GPIOA_ModeCfg>
/home/flinux/Downloads/ch583-main/EVT/EXAM/my_code_new/obj/../src/Main.c:73
		GPIOB_SetBits(GPIO_Pin_16);
     ff4:	458d                	li	a1,3
     ff6:	20000513          	li	a0,512
     ffa:	2019                	jal	1000 <GPIOA_ModeCfg>
/home/flinux/Downloads/ch583-main/EVT/EXAM/my_code_new/obj/../src/Main.c:74
		GPIOB_SetBits(GPIO_Pin_17);
     ffc:	22c5                	jal	11dc <UART1_DefInit>
/home/flinux/Downloads/ch583-main/EVT/EXAM/my_code_new/obj/../src/Main.c:75

     ffe:	3755                	jal	fa2 <print_console>

00001000 <GPIOA_ModeCfg>:
GPIOA_ModeCfg():
/home/flinux/Downloads/ch583-main/EVT/EXAM/my_code_new/obj/../StdPeriphDriver/CH58x_gpio.c:27
 *
 * @return  none
 */
void GPIOA_ModeCfg(uint32_t pin, GPIOModeTypeDef mode)
{
    switch(mode)
    1000:	4791                	li	a5,4
    1002:	02b7ee63          	bltu	a5,a1,103e <GPIOA_ModeCfg+0x3e>
    1006:	00000717          	auipc	a4,0x0
    100a:	25a70713          	addi	a4,a4,602 # 1260 <UART1_RecvString+0x2a>
    100e:	058a                	slli	a1,a1,0x2
    1010:	95ba                	add	a1,a1,a4
    1012:	419c                	lw	a5,0(a1)
    1014:	97ba                	add	a5,a5,a4
    1016:	8782                	jr	a5
/home/flinux/Downloads/ch583-main/EVT/EXAM/my_code_new/obj/../StdPeriphDriver/CH58x_gpio.c:30
    {
        case GPIO_ModeIN_Floating:
            R32_PA_PD_DRV &= ~pin;
    1018:	400017b7          	lui	a5,0x40001
    101c:	0b47a703          	lw	a4,180(a5) # 400010b4 <_eusrstack+0x1fff90b4>
    1020:	fff54513          	not	a0,a0
    1024:	8f69                	and	a4,a4,a0
    1026:	0ae7aa23          	sw	a4,180(a5)
/home/flinux/Downloads/ch583-main/EVT/EXAM/my_code_new/obj/../StdPeriphDriver/CH58x_gpio.c:31
            R32_PA_PU &= ~pin;
    102a:	0b07a703          	lw	a4,176(a5)
/home/flinux/Downloads/ch583-main/EVT/EXAM/my_code_new/obj/../StdPeriphDriver/CH58x_gpio.c:43
            R32_PA_DIR &= ~pin;
            break;

        case GPIO_ModeIN_PD:
            R32_PA_PD_DRV |= pin;
            R32_PA_PU &= ~pin;
    102e:	8f69                	and	a4,a4,a0
    1030:	0ae7a823          	sw	a4,176(a5)
/home/flinux/Downloads/ch583-main/EVT/EXAM/my_code_new/obj/../StdPeriphDriver/CH58x_gpio.c:44
            R32_PA_DIR &= ~pin;
    1034:	0a07a703          	lw	a4,160(a5)
    1038:	8d79                	and	a0,a0,a4
/home/flinux/Downloads/ch583-main/EVT/EXAM/my_code_new/obj/../StdPeriphDriver/CH58x_gpio.c:54
            R32_PA_DIR |= pin;
            break;

        case GPIO_ModeOut_PP_20mA:
            R32_PA_PD_DRV |= pin;
            R32_PA_DIR |= pin;
    103a:	0aa7a023          	sw	a0,160(a5)
/home/flinux/Downloads/ch583-main/EVT/EXAM/my_code_new/obj/../StdPeriphDriver/CH58x_gpio.c:60
            break;

        default:
            break;
    }
}
    103e:	8082                	ret
/home/flinux/Downloads/ch583-main/EVT/EXAM/my_code_new/obj/../StdPeriphDriver/CH58x_gpio.c:36
            R32_PA_PD_DRV &= ~pin;
    1040:	400017b7          	lui	a5,0x40001
    1044:	0b47a683          	lw	a3,180(a5) # 400010b4 <_eusrstack+0x1fff90b4>
    1048:	fff54713          	not	a4,a0
    104c:	8ef9                	and	a3,a3,a4
    104e:	0ad7aa23          	sw	a3,180(a5)
/home/flinux/Downloads/ch583-main/EVT/EXAM/my_code_new/obj/../StdPeriphDriver/CH58x_gpio.c:37
            R32_PA_PU |= pin;
    1052:	0b07a683          	lw	a3,176(a5)
    1056:	8d55                	or	a0,a0,a3
    1058:	0aa7a823          	sw	a0,176(a5)
/home/flinux/Downloads/ch583-main/EVT/EXAM/my_code_new/obj/../StdPeriphDriver/CH58x_gpio.c:38
            R32_PA_DIR &= ~pin;
    105c:	0a07a683          	lw	a3,160(a5)
    1060:	8f75                	and	a4,a4,a3
    1062:	0ae7a023          	sw	a4,160(a5)
/home/flinux/Downloads/ch583-main/EVT/EXAM/my_code_new/obj/../StdPeriphDriver/CH58x_gpio.c:39
            break;
    1066:	8082                	ret
/home/flinux/Downloads/ch583-main/EVT/EXAM/my_code_new/obj/../StdPeriphDriver/CH58x_gpio.c:42
            R32_PA_PD_DRV |= pin;
    1068:	400017b7          	lui	a5,0x40001
    106c:	0b47a703          	lw	a4,180(a5) # 400010b4 <_eusrstack+0x1fff90b4>
    1070:	8f49                	or	a4,a4,a0
    1072:	0ae7aa23          	sw	a4,180(a5)
/home/flinux/Downloads/ch583-main/EVT/EXAM/my_code_new/obj/../StdPeriphDriver/CH58x_gpio.c:43
            R32_PA_PU &= ~pin;
    1076:	0b07a703          	lw	a4,176(a5)
    107a:	fff54513          	not	a0,a0
    107e:	bf45                	j	102e <GPIOA_ModeCfg+0x2e>
/home/flinux/Downloads/ch583-main/EVT/EXAM/my_code_new/obj/../StdPeriphDriver/CH58x_gpio.c:48
            R32_PA_PD_DRV &= ~pin;
    1080:	400017b7          	lui	a5,0x40001
    1084:	0b47a683          	lw	a3,180(a5) # 400010b4 <_eusrstack+0x1fff90b4>
    1088:	fff54713          	not	a4,a0
    108c:	8f75                	and	a4,a4,a3
/home/flinux/Downloads/ch583-main/EVT/EXAM/my_code_new/obj/../StdPeriphDriver/CH58x_gpio.c:53
            R32_PA_PD_DRV |= pin;
    108e:	0ae7aa23          	sw	a4,180(a5)
/home/flinux/Downloads/ch583-main/EVT/EXAM/my_code_new/obj/../StdPeriphDriver/CH58x_gpio.c:54
            R32_PA_DIR |= pin;
    1092:	0a07a703          	lw	a4,160(a5)
    1096:	8d59                	or	a0,a0,a4
    1098:	b74d                	j	103a <GPIOA_ModeCfg+0x3a>
/home/flinux/Downloads/ch583-main/EVT/EXAM/my_code_new/obj/../StdPeriphDriver/CH58x_gpio.c:53
            R32_PA_PD_DRV |= pin;
    109a:	400017b7          	lui	a5,0x40001
    109e:	0b47a703          	lw	a4,180(a5) # 400010b4 <_eusrstack+0x1fff90b4>
    10a2:	8f49                	or	a4,a4,a0
    10a4:	b7ed                	j	108e <GPIOA_ModeCfg+0x8e>

000010a6 <I2C_GenerateSTART>:
I2C_GenerateSTART():
/home/flinux/Downloads/ch583-main/EVT/EXAM/my_code_new/obj/../StdPeriphDriver/CH58x_i2c.c:117
 * @return  none
 */
void I2C_GenerateSTART(FunctionalState NewState)
{
    if(NewState != DISABLE)
        R16_I2C_CTRL1 |= RB_I2C_START;
    10a6:	40005737          	lui	a4,0x40005
    10aa:	80075783          	lhu	a5,-2048(a4) # 40004800 <_eusrstack+0x1fffc800>
/home/flinux/Downloads/ch583-main/EVT/EXAM/my_code_new/obj/../StdPeriphDriver/CH58x_i2c.c:116
    if(NewState != DISABLE)
    10ae:	c511                	beqz	a0,10ba <I2C_GenerateSTART+0x14>
/home/flinux/Downloads/ch583-main/EVT/EXAM/my_code_new/obj/../StdPeriphDriver/CH58x_i2c.c:117
        R16_I2C_CTRL1 |= RB_I2C_START;
    10b0:	1007e793          	ori	a5,a5,256
/home/flinux/Downloads/ch583-main/EVT/EXAM/my_code_new/obj/../StdPeriphDriver/CH58x_i2c.c:119
    else
        R16_I2C_CTRL1 &= ~RB_I2C_START;
    10b4:	80f71023          	sh	a5,-2048(a4)
/home/flinux/Downloads/ch583-main/EVT/EXAM/my_code_new/obj/../StdPeriphDriver/CH58x_i2c.c:120
}
    10b8:	8082                	ret
/home/flinux/Downloads/ch583-main/EVT/EXAM/my_code_new/obj/../StdPeriphDriver/CH58x_i2c.c:119
        R16_I2C_CTRL1 &= ~RB_I2C_START;
    10ba:	07c2                	slli	a5,a5,0x10
    10bc:	83c1                	srli	a5,a5,0x10
    10be:	eff7f793          	andi	a5,a5,-257
    10c2:	07c2                	slli	a5,a5,0x10
    10c4:	83c1                	srli	a5,a5,0x10
    10c6:	b7fd                	j	10b4 <I2C_GenerateSTART+0xe>

000010c8 <I2C_GenerateSTOP>:
I2C_GenerateSTOP():
/home/flinux/Downloads/ch583-main/EVT/EXAM/my_code_new/obj/../StdPeriphDriver/CH58x_i2c.c:134
 * @return  none
 */
void I2C_GenerateSTOP(FunctionalState NewState)
{
    if(NewState != DISABLE)
        R16_I2C_CTRL1 |= RB_I2C_STOP;
    10c8:	40005737          	lui	a4,0x40005
    10cc:	80075783          	lhu	a5,-2048(a4) # 40004800 <_eusrstack+0x1fffc800>
/home/flinux/Downloads/ch583-main/EVT/EXAM/my_code_new/obj/../StdPeriphDriver/CH58x_i2c.c:133
    if(NewState != DISABLE)
    10d0:	c511                	beqz	a0,10dc <I2C_GenerateSTOP+0x14>
/home/flinux/Downloads/ch583-main/EVT/EXAM/my_code_new/obj/../StdPeriphDriver/CH58x_i2c.c:134
        R16_I2C_CTRL1 |= RB_I2C_STOP;
    10d2:	2007e793          	ori	a5,a5,512
/home/flinux/Downloads/ch583-main/EVT/EXAM/my_code_new/obj/../StdPeriphDriver/CH58x_i2c.c:136
    else
        R16_I2C_CTRL1 &= ~RB_I2C_STOP;
    10d6:	80f71023          	sh	a5,-2048(a4)
/home/flinux/Downloads/ch583-main/EVT/EXAM/my_code_new/obj/../StdPeriphDriver/CH58x_i2c.c:137
}
    10da:	8082                	ret
/home/flinux/Downloads/ch583-main/EVT/EXAM/my_code_new/obj/../StdPeriphDriver/CH58x_i2c.c:136
        R16_I2C_CTRL1 &= ~RB_I2C_STOP;
    10dc:	07c2                	slli	a5,a5,0x10
    10de:	83c1                	srli	a5,a5,0x10
    10e0:	dff7f793          	andi	a5,a5,-513
    10e4:	07c2                	slli	a5,a5,0x10
    10e6:	83c1                	srli	a5,a5,0x10
    10e8:	b7fd                	j	10d6 <I2C_GenerateSTOP+0xe>

000010ea <I2C_AcknowledgeConfig>:
I2C_AcknowledgeConfig():
/home/flinux/Downloads/ch583-main/EVT/EXAM/my_code_new/obj/../StdPeriphDriver/CH58x_i2c.c:151
 * @return  none
 */
void I2C_AcknowledgeConfig(FunctionalState NewState)
{
    if(NewState != DISABLE)
        R16_I2C_CTRL1 |= RB_I2C_ACK;
    10ea:	40005737          	lui	a4,0x40005
    10ee:	80075783          	lhu	a5,-2048(a4) # 40004800 <_eusrstack+0x1fffc800>
/home/flinux/Downloads/ch583-main/EVT/EXAM/my_code_new/obj/../StdPeriphDriver/CH58x_i2c.c:150
    if(NewState != DISABLE)
    10f2:	c511                	beqz	a0,10fe <I2C_AcknowledgeConfig+0x14>
/home/flinux/Downloads/ch583-main/EVT/EXAM/my_code_new/obj/../StdPeriphDriver/CH58x_i2c.c:151
        R16_I2C_CTRL1 |= RB_I2C_ACK;
    10f4:	4007e793          	ori	a5,a5,1024
/home/flinux/Downloads/ch583-main/EVT/EXAM/my_code_new/obj/../StdPeriphDriver/CH58x_i2c.c:153
    else
        R16_I2C_CTRL1 &= ~RB_I2C_ACK;
    10f8:	80f71023          	sh	a5,-2048(a4)
/home/flinux/Downloads/ch583-main/EVT/EXAM/my_code_new/obj/../StdPeriphDriver/CH58x_i2c.c:154
}
    10fc:	8082                	ret
/home/flinux/Downloads/ch583-main/EVT/EXAM/my_code_new/obj/../StdPeriphDriver/CH58x_i2c.c:153
        R16_I2C_CTRL1 &= ~RB_I2C_ACK;
    10fe:	07c2                	slli	a5,a5,0x10
    1100:	83c1                	srli	a5,a5,0x10
    1102:	bff7f793          	andi	a5,a5,-1025
    1106:	07c2                	slli	a5,a5,0x10
    1108:	83c1                	srli	a5,a5,0x10
    110a:	b7fd                	j	10f8 <I2C_AcknowledgeConfig+0xe>

0000110c <I2C_ITConfig>:
I2C_ITConfig():
/home/flinux/Downloads/ch583-main/EVT/EXAM/my_code_new/obj/../StdPeriphDriver/CH58x_i2c.c:221
 * @return  none
 */
void I2C_ITConfig(I2C_ITTypeDef I2C_IT, FunctionalState NewState)
{
    if(NewState != DISABLE)
        R16_I2C_CTRL2 |= I2C_IT;
    110c:	400057b7          	lui	a5,0x40005
    1110:	8047d703          	lhu	a4,-2044(a5) # 40004804 <_eusrstack+0x1fffc804>
    1114:	0542                	slli	a0,a0,0x10
    1116:	8141                	srli	a0,a0,0x10
/home/flinux/Downloads/ch583-main/EVT/EXAM/my_code_new/obj/../StdPeriphDriver/CH58x_i2c.c:220
    if(NewState != DISABLE)
    1118:	c589                	beqz	a1,1122 <I2C_ITConfig+0x16>
/home/flinux/Downloads/ch583-main/EVT/EXAM/my_code_new/obj/../StdPeriphDriver/CH58x_i2c.c:221
        R16_I2C_CTRL2 |= I2C_IT;
    111a:	8d59                	or	a0,a0,a4
/home/flinux/Downloads/ch583-main/EVT/EXAM/my_code_new/obj/../StdPeriphDriver/CH58x_i2c.c:223
    else
        R16_I2C_CTRL2 &= (uint16_t)~I2C_IT;
    111c:	80a79223          	sh	a0,-2044(a5)
/home/flinux/Downloads/ch583-main/EVT/EXAM/my_code_new/obj/../StdPeriphDriver/CH58x_i2c.c:224
}
    1120:	8082                	ret
/home/flinux/Downloads/ch583-main/EVT/EXAM/my_code_new/obj/../StdPeriphDriver/CH58x_i2c.c:223
        R16_I2C_CTRL2 &= (uint16_t)~I2C_IT;
    1122:	fff54513          	not	a0,a0
    1126:	8d79                	and	a0,a0,a4
    1128:	bfd5                	j	111c <I2C_ITConfig+0x10>

0000112a <I2C_SendData>:
I2C_SendData():
/home/flinux/Downloads/ch583-main/EVT/EXAM/my_code_new/obj/../StdPeriphDriver/CH58x_i2c.c:237
 *
 * @return  none
 */
void I2C_SendData(uint8_t Data)
{
    R16_I2C_DATAR = Data;
    112a:	400057b7          	lui	a5,0x40005
    112e:	80a79823          	sh	a0,-2032(a5) # 40004810 <_eusrstack+0x1fffc810>
/home/flinux/Downloads/ch583-main/EVT/EXAM/my_code_new/obj/../StdPeriphDriver/CH58x_i2c.c:238
}
    1132:	8082                	ret

00001134 <I2C_ReceiveData>:
I2C_ReceiveData():
/home/flinux/Downloads/ch583-main/EVT/EXAM/my_code_new/obj/../StdPeriphDriver/CH58x_i2c.c:249
 *
 * @return  The value of the received data.
 */
uint8_t I2C_ReceiveData(void)
{
    return (uint8_t)R16_I2C_DATAR;
    1134:	400057b7          	lui	a5,0x40005
    1138:	8107d503          	lhu	a0,-2032(a5) # 40004810 <_eusrstack+0x1fffc810>
/home/flinux/Downloads/ch583-main/EVT/EXAM/my_code_new/obj/../StdPeriphDriver/CH58x_i2c.c:250
}
    113c:	0ff57513          	andi	a0,a0,255
    1140:	8082                	ret

00001142 <I2C_GetLastEvent>:
I2C_GetLastEvent():
/home/flinux/Downloads/ch583-main/EVT/EXAM/my_code_new/obj/../StdPeriphDriver/CH58x_i2c.c:512
uint32_t I2C_GetLastEvent(void)
{
    uint32_t lastevent = 0;
    uint32_t flag1 = 0, flag2 = 0;

    flag1 = R16_I2C_STAR1;
    1142:	400057b7          	lui	a5,0x40005
    1146:	8147d703          	lhu	a4,-2028(a5) # 40004814 <_eusrstack+0x1fffc814>
/home/flinux/Downloads/ch583-main/EVT/EXAM/my_code_new/obj/../StdPeriphDriver/CH58x_i2c.c:513
    flag2 = R16_I2C_STAR2;
    114a:	8187d503          	lhu	a0,-2024(a5)
/home/flinux/Downloads/ch583-main/EVT/EXAM/my_code_new/obj/../StdPeriphDriver/CH58x_i2c.c:514
    flag2 = flag2 << 16;
    114e:	0542                	slli	a0,a0,0x10
/home/flinux/Downloads/ch583-main/EVT/EXAM/my_code_new/obj/../StdPeriphDriver/CH58x_i2c.c:515
    lastevent = (flag1 | flag2) & FLAG_Mask;
    1150:	8d59                	or	a0,a0,a4
    1152:	0522                	slli	a0,a0,0x8
/home/flinux/Downloads/ch583-main/EVT/EXAM/my_code_new/obj/../StdPeriphDriver/CH58x_i2c.c:518

    return lastevent;
}
    1154:	8121                	srli	a0,a0,0x8
    1156:	8082                	ret

00001158 <I2C_ClearFlag>:
I2C_ClearFlag():
/home/flinux/Downloads/ch583-main/EVT/EXAM/my_code_new/obj/../StdPeriphDriver/CH58x_i2c.c:603
void I2C_ClearFlag(uint32_t I2C_FLAG)
{
    uint32_t flagpos = 0;

    flagpos = I2C_FLAG & FLAG_Mask;
    R16_I2C_STAR1 = (uint16_t)~flagpos;
    1158:	fff54513          	not	a0,a0
    115c:	0542                	slli	a0,a0,0x10
    115e:	8141                	srli	a0,a0,0x10
    1160:	400057b7          	lui	a5,0x40005
    1164:	80a79a23          	sh	a0,-2028(a5) # 40004814 <_eusrstack+0x1fffc814>
/home/flinux/Downloads/ch583-main/EVT/EXAM/my_code_new/obj/../StdPeriphDriver/CH58x_i2c.c:604
}
    1168:	8082                	ret

0000116a <GetSysClock>:
GetSysClock():
/home/flinux/Downloads/ch583-main/EVT/EXAM/my_code_new/obj/../StdPeriphDriver/CH58x_sys.c:117
    rev = R16_CLK_SYS_CFG & 0xff;
    116a:	400017b7          	lui	a5,0x40001
    116e:	0087d503          	lhu	a0,8(a5) # 40001008 <_eusrstack+0x1fff9008>
    1172:	0542                	slli	a0,a0,0x10
    1174:	8141                	srli	a0,a0,0x10
/home/flinux/Downloads/ch583-main/EVT/EXAM/my_code_new/obj/../StdPeriphDriver/CH58x_sys.c:118
    if((rev & 0x40) == (0 << 6))
    1176:	04057793          	andi	a5,a0,64
    117a:	eb91                	bnez	a5,118e <GetSysClock+0x24>
/home/flinux/Downloads/ch583-main/EVT/EXAM/my_code_new/obj/../StdPeriphDriver/CH58x_sys.c:120
        return (32000000 / (rev & 0x1f));
    117c:	01f57793          	andi	a5,a0,31
    1180:	01e85537          	lui	a0,0x1e85
/home/flinux/Downloads/ch583-main/EVT/EXAM/my_code_new/obj/../StdPeriphDriver/CH58x_sys.c:124
        return (480000000 / (rev & 0x1f));
    1184:	80050513          	addi	a0,a0,-2048 # 1e84800 <_data_lma+0x1e8358c>
    1188:	02f54533          	div	a0,a0,a5
    118c:	8082                	ret
/home/flinux/Downloads/ch583-main/EVT/EXAM/my_code_new/obj/../StdPeriphDriver/CH58x_sys.c:122
    else if((rev & RB_CLK_SYS_MOD) == (1 << 6))
    118e:	0c057793          	andi	a5,a0,192
    1192:	04000713          	li	a4,64
    1196:	00e79763          	bne	a5,a4,11a4 <GetSysClock+0x3a>
/home/flinux/Downloads/ch583-main/EVT/EXAM/my_code_new/obj/../StdPeriphDriver/CH58x_sys.c:124
        return (480000000 / (rev & 0x1f));
    119a:	01f57793          	andi	a5,a0,31
    119e:	1c9c4537          	lui	a0,0x1c9c4
    11a2:	b7cd                	j	1184 <GetSysClock+0x1a>
/home/flinux/Downloads/ch583-main/EVT/EXAM/my_code_new/obj/../StdPeriphDriver/CH58x_sys.c:128
        return (32000);
    11a4:	6521                	lui	a0,0x8
    11a6:	d0050513          	addi	a0,a0,-768 # 7d00 <_data_lma+0x6a8c>
/home/flinux/Downloads/ch583-main/EVT/EXAM/my_code_new/obj/../StdPeriphDriver/CH58x_sys.c:130
}
    11aa:	8082                	ret

000011ac <UART1_BaudRateCfg>:
UART1_BaudRateCfg():
/home/flinux/Downloads/ch583-main/EVT/EXAM/my_code_new/obj/../StdPeriphDriver/CH58x_uart1.c:43
 * @param   baudrate    - 
 *
 * @return  none
 */
void UART1_BaudRateCfg(uint32_t baudrate)
{
    11ac:	1141                	addi	sp,sp,-16
    11ae:	c422                	sw	s0,8(sp)
    11b0:	c606                	sw	ra,12(sp)
    11b2:	842a                	mv	s0,a0
/home/flinux/Downloads/ch583-main/EVT/EXAM/my_code_new/obj/../StdPeriphDriver/CH58x_uart1.c:46
    uint32_t x;

    x = 10 * GetSysClock() / 8 / baudrate;
    11b4:	3f5d                	jal	116a <GetSysClock>
    11b6:	4729                	li	a4,10
    11b8:	02e507b3          	mul	a5,a0,a4
/home/flinux/Downloads/ch583-main/EVT/EXAM/my_code_new/obj/../StdPeriphDriver/CH58x_uart1.c:49
    x = (x + 5) / 10;
    R16_UART1_DL = (uint16_t)x;
}
    11bc:	40b2                	lw	ra,12(sp)
/home/flinux/Downloads/ch583-main/EVT/EXAM/my_code_new/obj/../StdPeriphDriver/CH58x_uart1.c:46
    x = 10 * GetSysClock() / 8 / baudrate;
    11be:	838d                	srli	a5,a5,0x3
    11c0:	0287d7b3          	divu	a5,a5,s0
/home/flinux/Downloads/ch583-main/EVT/EXAM/my_code_new/obj/../StdPeriphDriver/CH58x_uart1.c:49
}
    11c4:	4422                	lw	s0,8(sp)
/home/flinux/Downloads/ch583-main/EVT/EXAM/my_code_new/obj/../StdPeriphDriver/CH58x_uart1.c:47
    x = (x + 5) / 10;
    11c6:	0795                	addi	a5,a5,5
    11c8:	02e7d7b3          	divu	a5,a5,a4
/home/flinux/Downloads/ch583-main/EVT/EXAM/my_code_new/obj/../StdPeriphDriver/CH58x_uart1.c:48
    R16_UART1_DL = (uint16_t)x;
    11cc:	40003737          	lui	a4,0x40003
    11d0:	07c2                	slli	a5,a5,0x10
    11d2:	83c1                	srli	a5,a5,0x10
    11d4:	40f71623          	sh	a5,1036(a4) # 4000340c <_eusrstack+0x1fffb40c>
/home/flinux/Downloads/ch583-main/EVT/EXAM/my_code_new/obj/../StdPeriphDriver/CH58x_uart1.c:49
}
    11d8:	0141                	addi	sp,sp,16
    11da:	8082                	ret

000011dc <UART1_DefInit>:
UART1_DefInit():
/home/flinux/Downloads/ch583-main/EVT/EXAM/my_code_new/obj/../StdPeriphDriver/CH58x_uart1.c:26
    UART1_BaudRateCfg(115200);
    11dc:	6571                	lui	a0,0x1c
/home/flinux/Downloads/ch583-main/EVT/EXAM/my_code_new/obj/../StdPeriphDriver/CH58x_uart1.c:25
{
    11de:	1141                	addi	sp,sp,-16
/home/flinux/Downloads/ch583-main/EVT/EXAM/my_code_new/obj/../StdPeriphDriver/CH58x_uart1.c:26
    UART1_BaudRateCfg(115200);
    11e0:	20050513          	addi	a0,a0,512 # 1c200 <_data_lma+0x1af8c>
/home/flinux/Downloads/ch583-main/EVT/EXAM/my_code_new/obj/../StdPeriphDriver/CH58x_uart1.c:25
{
    11e4:	c606                	sw	ra,12(sp)
/home/flinux/Downloads/ch583-main/EVT/EXAM/my_code_new/obj/../StdPeriphDriver/CH58x_uart1.c:26
    UART1_BaudRateCfg(115200);
    11e6:	37d9                	jal	11ac <UART1_BaudRateCfg>
/home/flinux/Downloads/ch583-main/EVT/EXAM/my_code_new/obj/../StdPeriphDriver/CH58x_uart1.c:27
    R8_UART1_FCR = (2 << 6) | RB_FCR_TX_FIFO_CLR | RB_FCR_RX_FIFO_CLR | RB_FCR_FIFO_EN; // FIFO4
    11e8:	400037b7          	lui	a5,0x40003
    11ec:	f8700713          	li	a4,-121
    11f0:	40e78123          	sb	a4,1026(a5) # 40003402 <_eusrstack+0x1fffb402>
/home/flinux/Downloads/ch583-main/EVT/EXAM/my_code_new/obj/../StdPeriphDriver/CH58x_uart1.c:28
    R8_UART1_LCR = RB_LCR_WORD_SZ;
    11f4:	470d                	li	a4,3
    11f6:	40e781a3          	sb	a4,1027(a5)
/home/flinux/Downloads/ch583-main/EVT/EXAM/my_code_new/obj/../StdPeriphDriver/CH58x_uart1.c:29
    R8_UART1_IER = RB_IER_TXD_EN;
    11fa:	04000713          	li	a4,64
    11fe:	40e780a3          	sb	a4,1025(a5)
/home/flinux/Downloads/ch583-main/EVT/EXAM/my_code_new/obj/../StdPeriphDriver/CH58x_uart1.c:30
    R8_UART1_DIV = 1;
    1202:	4705                	li	a4,1
    1204:	40e78723          	sb	a4,1038(a5)
/home/flinux/Downloads/ch583-main/EVT/EXAM/my_code_new/obj/../StdPeriphDriver/CH58x_uart1.c:31
}
    1208:	40b2                	lw	ra,12(sp)
    120a:	0141                	addi	sp,sp,16
    120c:	8082                	ret

0000120e <UART1_SendString>:
UART1_SendString():
/home/flinux/Downloads/ch583-main/EVT/EXAM/my_code_new/obj/../StdPeriphDriver/CH58x_uart1.c:122
{
    uint16_t len = l;

    while(len)
    {
        if(R8_UART1_TFC != UART_FIFO_SIZE)
    120e:	400037b7          	lui	a5,0x40003
    1212:	4721                	li	a4,8
    1214:	400036b7          	lui	a3,0x40003
/home/flinux/Downloads/ch583-main/EVT/EXAM/my_code_new/obj/../StdPeriphDriver/CH58x_uart1.c:120
    while(len)
    1218:	e191                	bnez	a1,121c <UART1_SendString+0xe>
/home/flinux/Downloads/ch583-main/EVT/EXAM/my_code_new/obj/../StdPeriphDriver/CH58x_uart1.c:128
        {
            R8_UART1_THR = *buf++;
            len--;
        }
    }
}
    121a:	8082                	ret
/home/flinux/Downloads/ch583-main/EVT/EXAM/my_code_new/obj/../StdPeriphDriver/CH58x_uart1.c:122
        if(R8_UART1_TFC != UART_FIFO_SIZE)
    121c:	40b7c603          	lbu	a2,1035(a5) # 4000340b <_eusrstack+0x1fffb40b>
    1220:	fec70ce3          	beq	a4,a2,1218 <UART1_SendString+0xa>
/home/flinux/Downloads/ch583-main/EVT/EXAM/my_code_new/obj/../StdPeriphDriver/CH58x_uart1.c:124
            R8_UART1_THR = *buf++;
    1224:	0505                	addi	a0,a0,1
    1226:	fff54603          	lbu	a2,-1(a0)
/home/flinux/Downloads/ch583-main/EVT/EXAM/my_code_new/obj/../StdPeriphDriver/CH58x_uart1.c:125
            len--;
    122a:	15fd                	addi	a1,a1,-1
    122c:	05c2                	slli	a1,a1,0x10
/home/flinux/Downloads/ch583-main/EVT/EXAM/my_code_new/obj/../StdPeriphDriver/CH58x_uart1.c:124
            R8_UART1_THR = *buf++;
    122e:	40c68423          	sb	a2,1032(a3) # 40003408 <_eusrstack+0x1fffb408>
/home/flinux/Downloads/ch583-main/EVT/EXAM/my_code_new/obj/../StdPeriphDriver/CH58x_uart1.c:125
            len--;
    1232:	81c1                	srli	a1,a1,0x10
    1234:	b7d5                	j	1218 <UART1_SendString+0xa>

00001236 <UART1_RecvString>:
UART1_RecvString():
/home/flinux/Downloads/ch583-main/EVT/EXAM/my_code_new/obj/../StdPeriphDriver/CH58x_uart1.c:143
 */
uint16_t UART1_RecvString(uint8_t *buf)
{
    uint16_t len = 0;

    while(R8_UART1_RFC)
    1236:	4781                	li	a5,0
    1238:	400036b7          	lui	a3,0x40003
    123c:	40a6c703          	lbu	a4,1034(a3) # 4000340a <_eusrstack+0x1fffb40a>
    1240:	01079613          	slli	a2,a5,0x10
    1244:	8241                	srli	a2,a2,0x10
    1246:	0ff77713          	andi	a4,a4,255
    124a:	e319                	bnez	a4,1250 <UART1_RecvString+0x1a>
/home/flinux/Downloads/ch583-main/EVT/EXAM/my_code_new/obj/../StdPeriphDriver/CH58x_uart1.c:150
        *buf++ = R8_UART1_RBR;
        len++;
    }

    return (len);
}
    124c:	8532                	mv	a0,a2
    124e:	8082                	ret
/home/flinux/Downloads/ch583-main/EVT/EXAM/my_code_new/obj/../StdPeriphDriver/CH58x_uart1.c:145
        *buf++ = R8_UART1_RBR;
    1250:	4086c603          	lbu	a2,1032(a3)
    1254:	00f50733          	add	a4,a0,a5
    1258:	0785                	addi	a5,a5,1
    125a:	00c70023          	sb	a2,0(a4)
/home/flinux/Downloads/ch583-main/EVT/EXAM/my_code_new/obj/../StdPeriphDriver/CH58x_uart1.c:146
        len++;
    125e:	bff9                	j	123c <UART1_RecvString+0x6>
    1260:	fdb8                	fsw	fa4,120(a1)
    1262:	ffff                	0xffff
    1264:	fde0                	fsw	fs0,124(a1)
    1266:	ffff                	0xffff
    1268:	fe08                	fsw	fa0,56(a2)
    126a:	ffff                	0xffff
    126c:	fe20                	fsw	fs0,120(a2)
    126e:	ffff                	0xffff
    1270:	fe3a                	fsw	fa4,60(sp)
    1272:	ffff                	0xffff
